文件：ADC.c        编译器版本 HGASM 0202 页次1


   1  0000              ; Generated by holtek-gcc v3.19, Wed Jan 07 18:11:20 2026
   2  0000              ; 
   3  0000              ; Configuration:
   4  0000              ;       with long instruction
   5  0000              ;       Multi-ROM, Multi-RAM
   6  0000              ;       bits_per_rom_unit:16
   7  0000              ;       with mp1
   8  0000              ;       with tbhp, address(0x9)
   9  0000              ;          Use tabrd-const
  10  0000              ;       
  11  0000              ; SFR address of long-instruction arch:
  12  0000              ;    mp0 = -1,1,0
  13  0000              ;    mp1 = 4,3,2
  14  0000              ;    mp2 = 14,13,12
  15  0000              ;    tbp = 9,7,8
  16  0000              ;    acc = 5
  17  0000              ;    pcl = 6
  18  0000              ;    status = 10
  19  0000              ;    bp = 11
  20  0000              ;    intc = 16
  21  0000              ;       
  22  0000              ;       
  23  0000              ; use 'tabrdc' instead of 'tabrd'
  24  0000              ;       
  25  0000              
  26  0000              #pragma translator "holtek-gcc 4.6.4" "3.19" "build 20130711"
  27  0000              ; Rebuild 718
  28  0000              
  29  0000              ir equ [2]
  30  0000              mp equ [3]
  31  0000              sbp equ [4]
  32  0000              acc equ [5]
  33  0000              bp equ [11]
  34  0000              tblp equ [7]
  35  0000              tbhp equ [9]
  36  0000              status equ [10]
  37  0000              c equ [10].0
  38  0000              ac equ [10].1
  39  0000              z equ [10].2
  40  0000              ov equ [10].3
  41  0000              cz equ [10].6
  42  0000              sc equ [10].7
  43  0000              intc equ [16]
  44  0000              
  45  0000              extern ra:byte
  46  0000              extern rb:byte
  47  0000              extern rc:byte
  48  0000              extern rd:byte
  49  0000              extern re:byte
  50  0000              extern rf:byte
  51  0000              extern rg:byte
  52  0000              extern rh:byte
  53  0000              extern _Crom2Prom:near
  54  0000              extern _Crom2PromNext:near
  55  0000              
  56  0000              RAMBANK 0 @BITDATASEC, @BITDATASEC1
  57  0000              @HCCINIT	.section 'data'
  58  0000              @HCCINIT0	.section 'data'
  59  0000              @BITDATASEC	 .section 'data'
文件：ADC.ASM      编译器版本 HGASM 0202 页次2

  60  0000              @BITDATASEC1	 .section 'data'
  61  0000              
  62  0000              #pragma debug scope 1 1
  63  0000              	extern __DELAY3:near
  64  0000              	extern __DELAYX3:near
  65  0000              	extern __DELAYX6:near
  66  0000              	extern __DELAYY5:near
  67  0000              	extern __DELAYY3:near
  68  0000              	extern _builtin_holtek_delay_2:byte
  69  0000              ___sadc0 equ [48]
  70  0000              ___sadol equ [46]
  71  0000              ___sadoh equ [47]
  72  0000              public _Read_AdcValue
  73  0000              #pragma debug scope 2 1

   5  0000              #line 5 "d:\work\project\bintuo-f73\software\bs66f360c\Source\ADC.c"
   5  0000              _Read_AdcValue .section 'code'
   5  0000              _Read_AdcValue proc
   8  0000              #line 8 "d:\work\project\bintuo-f73\software\bs66f360c\Source\ADC.c"
   8  0000  37B0        	clr [48].7
   9  0001              #line 9 "d:\work\project\bintuo-f73\software\bs66f360c\Source\ADC.c"
   9  0001  33B0        	set [48].7
  10  0002              #line 10 "d:\work\project\bintuo-f73\software\bs66f360c\Source\ADC.c"
  10  0002  37B0        	clr [48].7
  10  0003              _L3:
  11  0003              #line 11 "d:\work\project\bintuo-f73\software\bs66f360c\Source\ADC.c"
  11  0003  3F30        	sz [48].6
  11  0004  2800     R  	jmp _L3
  13  0005              #line 13 "d:\work\project\bintuo-f73\software\bs66f360c\Source\ADC.c"
  13  0005  072F        	mov a,[47]
  13  0006  0E0F        	and a,15
  13  0007  0080     E  	mov rc,a
  13  0008  1F00     E  	clr rb
  16  0009              #line 16 "d:\work\project\bintuo-f73\software\bs66f360c\Source\ADC.c"
  16  0009  072E        	mov a,[46]
  16  000A  0300     E  	add a,rb
  16  000B  0080     E  	mov rd,a
  16  000C  1F05        	clr acc
  16  000D  1300     E  	adc a,rc
  16  000E  0080     E  	mov re,a
  16  000F  0700     E  	mov a,rd
  16  0010  0080     E  	mov ra,a
  16  0011  0700     E  	mov a,re
  16  0012  0080     E  	mov rb,a
  16  0013  0003        	ret
  16  0014              _Read_AdcValue endp
  16  0014              #line 16 "d:\work\project\bintuo-f73\software\bs66f360c\Source\ADC.c"
  16  0014              #pragma debug scope 1 1
  16  0014              public _ADC_Task
  16  0014              #pragma debug scope 3 1
  23  0014              #line 23 "d:\work\project\bintuo-f73\software\bs66f360c\Source\ADC.c"
  23  0000              _ADC_Task .section 'code'
  23  0000              _ADC_Task proc
  27  0000              #line 27 "d:\work\project\bintuo-f73\software\bs66f360c\Source\ADC.c"
  27  0000  3C00     E  	sz _WorkFlag5[0].5
  27  0001  2800     R  	jmp _L6
  29  0002              #line 29 "d:\work\project\bintuo-f73\software\bs66f360c\Source\ADC.c"
  29  0002              	fcall _Read_AdcValue
  29  0009  0700     E  	mov a,rb
  29  000A  0080     E  	mov rc,a
文件：ADC.c        编译器版本 HGASM 0202 页次3

  29  000B  0700     E  	mov a,ra
  29  000C  0080     E  	mov rb,a
  30  000D              #line 30 "d:\work\project\bintuo-f73\software\bs66f360c\Source\ADC.c"
  30  000D  0700     E  	mov a,rb
  30  000E  0200     E  	sub a,_gu16v_AdMaxTemp2[0]
  30  000F  0700     E  	mov a,rc
  30  0010  1200     E  	sbc a,_gu16v_AdMaxTemp2[1]
  30  0011  380A        	snz c
  30  0012  2800     R  	jmp _L7
  30  0013  0700     E  	mov a,rb
  30  0014  0080     E  	mov _gu16v_AdMaxTemp2[0],a
  30  0015  0700     E  	mov a,rc
  30  0016  0080     E  	mov _gu16v_AdMaxTemp2[1],a
  30  0017              _L7:
  31  0017              #line 31 "d:\work\project\bintuo-f73\software\bs66f360c\Source\ADC.c"
  31  0017  0700     E  	mov a,_gu16v_AdMinTemp2[0]
  31  0018  0200     E  	sub a,rb
  31  0019  0700     E  	mov a,_gu16v_AdMinTemp2[1]
  31  001A  1200     E  	sbc a,rc
  31  001B  380A        	snz c
  31  001C  2800     R  	jmp _L8
  31  001D  0700     E  	mov a,rb
  31  001E  0080     E  	mov _gu16v_AdMinTemp2[0],a
  31  001F  0700     E  	mov a,rc
  31  0020  0080     E  	mov _gu16v_AdMinTemp2[1],a
  31  0021              _L8:
  32  0021              #line 32 "d:\work\project\bintuo-f73\software\bs66f360c\Source\ADC.c"
  32  0021  0700     E  	mov a,rb
  32  0022  0380     E  	addm a,_gu16v_AdcValue2[0]
  32  0023  0700     E  	mov a,rc
  32  0024  1380     E  	adcm a,_gu16v_AdcValue2[1]
  46  0025              #line 46 "d:\work\project\bintuo-f73\software\bs66f360c\Source\ADC.c"
  46  0025  3000     E  	set _WorkFlag5[0].5
  47  0026              #line 47 "d:\work\project\bintuo-f73\software\bs66f360c\Source\ADC.c"
  47  0026  0F31        	mov a,49
  47  0027  00B0        	mov [48],a
  47  0028  2800     R  	jmp _L5
  47  0029              _L6:
  51  0029              #line 51 "d:\work\project\bintuo-f73\software\bs66f360c\Source\ADC.c"
  51  0029              	fcall _Read_AdcValue
  51  0030  0700     E  	mov a,rb
  51  0031  0080     E  	mov rc,a
  51  0032  0700     E  	mov a,ra
  51  0033  0080     E  	mov rb,a
  52  0034              #line 52 "d:\work\project\bintuo-f73\software\bs66f360c\Source\ADC.c"
  52  0034  0700     E  	mov a,rb
  52  0035  0200     E  	sub a,_gu16v_AdMaxTemp1[0]
  52  0036  0700     E  	mov a,rc
  52  0037  1200     E  	sbc a,_gu16v_AdMaxTemp1[1]
  52  0038  380A        	snz c
  52  0039  2800     R  	jmp _L10
  52  003A  0700     E  	mov a,rb
  52  003B  0080     E  	mov _gu16v_AdMaxTemp1[0],a
  52  003C  0700     E  	mov a,rc
  52  003D  0080     E  	mov _gu16v_AdMaxTemp1[1],a
  52  003E              _L10:
  53  003E              #line 53 "d:\work\project\bintuo-f73\software\bs66f360c\Source\ADC.c"
  53  003E  0700     E  	mov a,_gu16v_AdMinTemp1[0]
  53  003F  0200     E  	sub a,rb
  53  0040  0700     E  	mov a,_gu16v_AdMinTemp1[1]
文件：ADC.c        编译器版本 HGASM 0202 页次4

  53  0041  1200     E  	sbc a,rc
  53  0042  380A        	snz c
  53  0043  2800     R  	jmp _L11
  53  0044  0700     E  	mov a,rb
  53  0045  0080     E  	mov _gu16v_AdMinTemp1[0],a
  53  0046  0700     E  	mov a,rc
  53  0047  0080     E  	mov _gu16v_AdMinTemp1[1],a
  53  0048              _L11:
  54  0048              #line 54 "d:\work\project\bintuo-f73\software\bs66f360c\Source\ADC.c"
  54  0048  0700     E  	mov a,rb
  54  0049  0380     E  	addm a,_gu16v_AdcValue1[0]
  54  004A  0700     E  	mov a,rc
  54  004B  1380     E  	adcm a,_gu16v_AdcValue1[1]
  55  004C              #line 55 "d:\work\project\bintuo-f73\software\bs66f360c\Source\ADC.c"
  55  004C  1480     E  	inc _gu8v_AdSampCnt1[0]
  56  004D              #line 56 "d:\work\project\bintuo-f73\software\bs66f360c\Source\ADC.c"
  56  004D  0F11        	mov a,17
  56  004E  0200     E  	sub a,_gu8v_AdSampCnt1[0]
  56  004F  3C0A        	sz c
  56  0050  2800     R  	jmp _L12
  58  0051              #line 58 "d:\work\project\bintuo-f73\software\bs66f360c\Source\ADC.c"
  58  0051  1F00     E  	clr _gu8v_AdSampCnt1[0]
  59  0052              #line 59 "d:\work\project\bintuo-f73\software\bs66f360c\Source\ADC.c"
  59  0052  0700     E  	mov a,_gu16v_AdcValue1[0]
  59  0053  0200     E  	sub a,_gu16v_AdMaxTemp1[0]
  59  0054  0080     E  	mov _gu16v_AdcValue1[0],a
  59  0055  0700     E  	mov a,_gu16v_AdcValue1[1]
  59  0056  1200     E  	sbc a,_gu16v_AdMaxTemp1[1]
  59  0057  0080     E  	mov _gu16v_AdcValue1[1],a
  60  0058              #line 60 "d:\work\project\bintuo-f73\software\bs66f360c\Source\ADC.c"
  60  0058  0700     E  	mov a,_gu16v_AdcValue1[0]
  60  0059  0200     E  	sub a,_gu16v_AdMinTemp1[0]
  60  005A  0080     E  	mov _gu16v_AdcValue1[0],a
  60  005B  0700     E  	mov a,_gu16v_AdcValue1[1]
  60  005C  1200     E  	sbc a,_gu16v_AdMinTemp1[1]
  60  005D  0080     E  	mov _gu16v_AdcValue1[1],a
  61  005E              #line 61 "d:\work\project\bintuo-f73\software\bs66f360c\Source\ADC.c"
  61  005E  0F04        	mov a,4
  61  005F              _LI1:
  61  005F  340A        	clr c
  61  0060  1B80     E  	rrc _gu16v_AdcValue1[1]
  61  0061  1B80     E  	rrc _gu16v_AdcValue1[0]
  61  0062  1785        	sdz acc
  61  0063  2800     R  	jmp _LI1
  62  0064              #line 62 "d:\work\project\bintuo-f73\software\bs66f360c\Source\ADC.c"
  62  0064  3000     E  	set _WorkFlag4[0].0
  63  0065              #line 63 "d:\work\project\bintuo-f73\software\bs66f360c\Source\ADC.c"
  63  0065  0700     E  	mov a,_gu16v_AdcValue1[0]
  63  0066  0080     E  	mov _gu16v_FunAdcSensor[0],a
  63  0067  0700     E  	mov a,_gu16v_AdcValue1[1]
  63  0068  0080     E  	mov _gu16v_FunAdcSensor[1],a
  65  0069              #line 65 "d:\work\project\bintuo-f73\software\bs66f360c\Source\ADC.c"
  65  0069  0700     E  	mov a,_gu16v_Fun7P5mmHgData[0]
  65  006A  0080     E  	mov rb,a
  65  006B  0700     E  	mov a,_gu16v_Fun7P5mmHgData[1]
  65  006C  0080     E  	mov rc,a
  65  006D  340A        	clr c
  65  006E  1B80     E  	rrc rc
  65  006F  1B80     E  	rrc rb
  65  0070  340A        	clr c
文件：ADC.c        编译器版本 HGASM 0202 页次5

  65  0071  1B80     E  	rrc rc
  65  0072  1B80     E  	rrc rb
  65  0073  0700     E  	mov a,_gu16v_FunAdcZeroData[0]
  65  0074  0380     E  	addm a,rb
  65  0075  0700     E  	mov a,_gu16v_FunAdcZeroData[1]
  65  0076  1380     E  	adcm a,rc
  65  0077  0700     E  	mov a,rb
  65  0078  0200     E  	sub a,_gu16v_FunAdcSensor[0]
  65  0079  0700     E  	mov a,rc
  65  007A  1200     E  	sbc a,_gu16v_FunAdcSensor[1]
  65  007B  3C0A        	sz c
  65  007C  2800     R  	jmp _L13
  67  007D              #line 67 "d:\work\project\bintuo-f73\software\bs66f360c\Source\ADC.c"
  67  007D  0700     E  	mov a,_gu16v_FunAdcSensor[0]
  67  007E  0200     E  	sub a,_gu16v_FunAdcZeroData[0]
  67  007F  0080     E  	mov rd,a
  67  0080  0700     E  	mov a,_gu16v_FunAdcSensor[1]
  67  0081  1200     E  	sbc a,_gu16v_FunAdcZeroData[1]
  67  0082  0080     E  	mov re,a
  67  0083  0700     E  	mov a,rd
  67  0084  0080     E  	mov rb,a
  67  0085  0700     E  	mov a,re
  67  0086  0080     E  	mov rc,a
  68  0087              #line 68 "d:\work\project\bintuo-f73\software\bs66f360c\Source\ADC.c"
  68  0087  1F00     E  	clr _builtin_holtek_udivmodhi4_2[6]
  68  0088  0700     E  	mov a,rd  
  68  0089  0080     E  	mov _builtin_holtek_udivmodhi4_2[0],a  
  68  008A  0700     E  	mov a,re  
  68  008B  0080     E  	mov _builtin_holtek_udivmodhi4_2[1],a
  68  008C  0700     E  	mov a,_gu16v_Fun7P5mmHgData[0]  
  68  008D  0080     E  	mov _builtin_holtek_udivmodhi4_2[2],a  
  68  008E  0700     E  	mov a,_gu16v_Fun7P5mmHgData[1]  
  68  008F  0080     E  	mov _builtin_holtek_udivmodhi4_2[3],a
  68  0090              	fcall _builtin_holtek_udivmodhi4
  68  0097  0700     E  	mov a,_builtin_holtek_udivmodhi4_2[0]  
  68  0098  0080     E  	mov rd,a  
  68  0099  0700     E  	mov a,_builtin_holtek_udivmodhi4_2[1]  
  68  009A  0080     E  	mov re,a
  68  009B  0700     E  	mov a,rd
  68  009C  0080     E  	mov _gu8v_FunNumDisValue[0],a
  69  009D              #line 69 "d:\work\project\bintuo-f73\software\bs66f360c\Source\ADC.c"
  69  009D  1F00     E  	clr _builtin_holtek_udivmodhi4_2[6]
  69  009E  0700     E  	mov a,rb  
  69  009F  0080     E  	mov _builtin_holtek_udivmodhi4_2[0],a  
  69  00A0  0700     E  	mov a,rc  
  69  00A1  0080     E  	mov _builtin_holtek_udivmodhi4_2[1],a
  69  00A2  0700     E  	mov a,_gu16v_Fun7P5mmHgData[0]  
  69  00A3  0080     E  	mov _builtin_holtek_udivmodhi4_2[2],a  
  69  00A4  0700     E  	mov a,_gu16v_Fun7P5mmHgData[1]  
  69  00A5  0080     E  	mov _builtin_holtek_udivmodhi4_2[3],a
  69  00A6              	fcall _builtin_holtek_udivmodhi4
  69  00AD  0700     E  	mov a,_builtin_holtek_udivmodhi4_2[4]  
  69  00AE  0080     E  	mov rb,a  
  69  00AF  0700     E  	mov a,_builtin_holtek_udivmodhi4_2[5]  
  69  00B0  0080     E  	mov rc,a
  69  00B1  0700     E  	mov a,rb
  69  00B2  0080     E  	mov _gu8v_NumDisTemp[0],a
  70  00B3              #line 70 "d:\work\project\bintuo-f73\software\bs66f360c\Source\ADC.c"
  70  00B3  0700     E  	mov a,_gu8v_FunNumDisValue[0]
  70  00B4  0080     E  	mov ra,a
文件：ADC.c        编译器版本 HGASM 0202 页次6

  70  00B5  1F00     E  	clr _builtin_holtek_udivmodqi4_2[3]
  70  00B6  0700     E  	mov a,_gu8v_NumDisTemp[0]
  70  00B7  0080     E  	mov _builtin_holtek_udivmodqi4_2[0],a
  70  00B8  0F0A        	mov a,10
  70  00B9  0080     E  	mov _builtin_holtek_udivmodqi4_2[1],a
  70  00BA              	fcall _builtin_holtek_udivmodqi4
  70  00C1  0700     E  	mov a,_builtin_holtek_udivmodqi4_2[0]
  70  00C2  0080     E  	mov rc,a
  70  00C3  0700     E  	mov a,ra
  70  00C4  0300     E  	add a,ra
  70  00C5  0080     E  	mov rb,a
  70  00C6  0700     E  	mov a,rb
  70  00C7  0380     E  	addm a,rb
  70  00C8  0700     E  	mov a,rb
  70  00C9  0380     E  	addm a,ra
  70  00CA  0700     E  	mov a,ra
  70  00CB  0380     E  	addm a,ra
  70  00CC  0700     E  	mov a,rc
  70  00CD  0300     E  	add a,ra
  70  00CE  0080     E  	mov _gu8v_FunNumDisValue[0],a
  70  00CF  2800     R  	jmp _L14
  70  00D0              _L13:
  74  00D0              #line 74 "d:\work\project\bintuo-f73\software\bs66f360c\Source\ADC.c"
  74  00D0  1F00     E  	clr _gu8v_FunNumDisValue[0]
  74  00D1              _L14:
  76  00D1              #line 76 "d:\work\project\bintuo-f73\software\bs66f360c\Source\ADC.c"
  76  00D1  0700     E  	mov a,_gu16v_AdcValue2[0]
  76  00D2  0200     E  	sub a,_gu16v_AdMaxTemp2[0]
  76  00D3  0080     E  	mov _gu16v_AdcValue2[0],a
  76  00D4  0700     E  	mov a,_gu16v_AdcValue2[1]
  76  00D5  1200     E  	sbc a,_gu16v_AdMaxTemp2[1]
  76  00D6  0080     E  	mov _gu16v_AdcValue2[1],a
  77  00D7              #line 77 "d:\work\project\bintuo-f73\software\bs66f360c\Source\ADC.c"
  77  00D7  0700     E  	mov a,_gu16v_AdcValue2[0]
  77  00D8  0200     E  	sub a,_gu16v_AdMinTemp2[0]
  77  00D9  0080     E  	mov _gu16v_AdcValue2[0],a
  77  00DA  0700     E  	mov a,_gu16v_AdcValue2[1]
  77  00DB  1200     E  	sbc a,_gu16v_AdMinTemp2[1]
  77  00DC  0080     E  	mov _gu16v_AdcValue2[1],a
  78  00DD              #line 78 "d:\work\project\bintuo-f73\software\bs66f360c\Source\ADC.c"
  78  00DD  0F04        	mov a,4
  78  00DE              _LI2:
  78  00DE  340A        	clr c
  78  00DF  1B80     E  	rrc _gu16v_AdcValue2[1]
  78  00E0  1B80     E  	rrc _gu16v_AdcValue2[0]
  78  00E1  1785        	sdz acc
  78  00E2  2800     R  	jmp _LI2
  79  00E3              #line 79 "d:\work\project\bintuo-f73\software\bs66f360c\Source\ADC.c"
  79  00E3  0700     E  	mov a,_gu16v_AdcValue2[0]
  79  00E4  0080     E  	mov _gu16v_ABAdcSensor[0],a
  79  00E5  0700     E  	mov a,_gu16v_AdcValue2[1]
  79  00E6  0080     E  	mov _gu16v_ABAdcSensor[1],a
  80  00E7              #line 80 "d:\work\project\bintuo-f73\software\bs66f360c\Source\ADC.c"
  80  00E7  0700     E  	mov a,_gu16v_Ab7P5mmHgData[0]
  80  00E8  0080     E  	mov rb,a
  80  00E9  0700     E  	mov a,_gu16v_Ab7P5mmHgData[1]
  80  00EA  0080     E  	mov rc,a
  80  00EB  340A        	clr c
  80  00EC  1B80     E  	rrc rc
  80  00ED  1B80     E  	rrc rb
文件：ADC.c        编译器版本 HGASM 0202 页次7

  80  00EE  340A        	clr c
  80  00EF  1B80     E  	rrc rc
  80  00F0  1B80     E  	rrc rb
  80  00F1  0700     E  	mov a,_gu16v_AbAdcZeroData[0]
  80  00F2  0380     E  	addm a,rb
  80  00F3  0700     E  	mov a,_gu16v_AbAdcZeroData[1]
  80  00F4  1380     E  	adcm a,rc
  80  00F5  0700     E  	mov a,rb
  80  00F6  0200     E  	sub a,_gu16v_ABAdcSensor[0]
  80  00F7  0700     E  	mov a,rc
  80  00F8  1200     E  	sbc a,_gu16v_ABAdcSensor[1]
  80  00F9  3C0A        	sz c
  80  00FA  2800     R  	jmp _L15
  82  00FB              #line 82 "d:\work\project\bintuo-f73\software\bs66f360c\Source\ADC.c"
  82  00FB  0700     E  	mov a,_gu16v_ABAdcSensor[0]
  82  00FC  0200     E  	sub a,_gu16v_AbAdcZeroData[0]
  82  00FD  0080     E  	mov rd,a
  82  00FE  0700     E  	mov a,_gu16v_ABAdcSensor[1]
  82  00FF  1200     E  	sbc a,_gu16v_AbAdcZeroData[1]
  82  0100  0080     E  	mov re,a
  82  0101  0700     E  	mov a,rd
  82  0102  0080     E  	mov rb,a
  82  0103  0700     E  	mov a,re
  82  0104  0080     E  	mov rc,a
  83  0105              #line 83 "d:\work\project\bintuo-f73\software\bs66f360c\Source\ADC.c"
  83  0105  0700     E  	mov a,_gu16v_Ab7P5mmHgData[0]
  83  0106  0080     E  	mov rd,a
  83  0107  0700     E  	mov a,_gu16v_Ab7P5mmHgData[1]
  83  0108  0080     E  	mov re,a
  84  0109              #line 84 "d:\work\project\bintuo-f73\software\bs66f360c\Source\ADC.c"
  84  0109  1F00     E  	clr _builtin_holtek_udivmodhi4_2[6]
  84  010A  0700     E  	mov a,rb  
  84  010B  0080     E  	mov _builtin_holtek_udivmodhi4_2[0],a  
  84  010C  0700     E  	mov a,rc  
  84  010D  0080     E  	mov _builtin_holtek_udivmodhi4_2[1],a
  84  010E  0700     E  	mov a,_gu16v_Ab7P5mmHgData[0]  
  84  010F  0080     E  	mov _builtin_holtek_udivmodhi4_2[2],a  
  84  0110  0700     E  	mov a,_gu16v_Ab7P5mmHgData[1]  
  84  0111  0080     E  	mov _builtin_holtek_udivmodhi4_2[3],a
  84  0112              	fcall _builtin_holtek_udivmodhi4
  84  0119  0700     E  	mov a,_builtin_holtek_udivmodhi4_2[4]  
  84  011A  0080     E  	mov rf,a  
  84  011B  0700     E  	mov a,_builtin_holtek_udivmodhi4_2[5]  
  84  011C  0080     E  	mov rg,a
  84  011D  0700     E  	mov a,rf
  84  011E  0080     E  	mov _gu8v_NumDisTemp[0],a
  83  011F              #line 83 "d:\work\project\bintuo-f73\software\bs66f360c\Source\ADC.c"
  83  011F  1F00     E  	clr _builtin_holtek_udivmodhi4_2[6]
  83  0120  0700     E  	mov a,rb  
  83  0121  0080     E  	mov _builtin_holtek_udivmodhi4_2[0],a  
  83  0122  0700     E  	mov a,rc  
  83  0123  0080     E  	mov _builtin_holtek_udivmodhi4_2[1],a
  83  0124  0700     E  	mov a,rd  
  83  0125  0080     E  	mov _builtin_holtek_udivmodhi4_2[2],a  
  83  0126  0700     E  	mov a,re  
  83  0127  0080     E  	mov _builtin_holtek_udivmodhi4_2[3],a
  83  0128              	fcall _builtin_holtek_udivmodhi4
  83  012F  0700     E  	mov a,_builtin_holtek_udivmodhi4_2[0]  
  83  0130  0080     E  	mov rb,a  
  83  0131  0700     E  	mov a,_builtin_holtek_udivmodhi4_2[1]  
文件：ADC.c        编译器版本 HGASM 0202 页次8

  83  0132  0080     E  	mov rc,a
  83  0133  0FFF        	mov a,255  
  83  0134  0680     E  	andm a,rb  
  83  0135  0F00        	mov a,0  
  83  0136  0680     E  	andm a,rc
  86  0137              #line 86 "d:\work\project\bintuo-f73\software\bs66f360c\Source\ADC.c"
  86  0137  340A        	clr c
  86  0138  1A00     E  	rlca rb
  86  0139  0080     E  	mov rd,a
  86  013A  1A00     E  	rlca rc
  86  013B  0080     E  	mov re,a
  86  013C  340A        	clr c
  86  013D  1A80     E  	rlc rd
  86  013E  1A80     E  	rlc re
  86  013F  0700     E  	mov a,rd
  86  0140  0380     E  	addm a,rb
  86  0141  0700     E  	mov a,re
  86  0142  1380     E  	adcm a,rc
  86  0143  340A        	clr c
  86  0144  1A80     E  	rlc rb
  86  0145  1A80     E  	rlc rc
  86  0146  1F00     E  	clr _builtin_holtek_udivmodqi4_2[3]
  86  0147  0700     E  	mov a,_gu8v_NumDisTemp[0]
  86  0148  0080     E  	mov _builtin_holtek_udivmodqi4_2[0],a
  86  0149  0F0A        	mov a,10
  86  014A  0080     E  	mov _builtin_holtek_udivmodqi4_2[1],a
  86  014B              	fcall _builtin_holtek_udivmodqi4
  86  0152  0700     E  	mov a,_builtin_holtek_udivmodqi4_2[0]
  86  0153  0080     E  	mov ra,a
  86  0154  0700     E  	mov a,ra
  86  0155  0380     E  	addm a,rb
  86  0156  3C0A        	sz c
  86  0157  1480     E  	inc rc
  86  0158  0700     E  	mov a,rb
  86  0159  0380     E  	addm a,_gu16v_AbNumDisValueOld[0]
  86  015A  0700     E  	mov a,rc
  86  015B  1380     E  	adcm a,_gu16v_AbNumDisValueOld[1]
  87  015C              #line 87 "d:\work\project\bintuo-f73\software\bs66f360c\Source\ADC.c"
  87  015C  1480     E  	inc _gu8v_AbSensorDisCnt[0]
  88  015D              #line 88 "d:\work\project\bintuo-f73\software\bs66f360c\Source\ADC.c"
  88  015D  0F03        	mov a,3
  88  015E  0200     E  	sub a,_gu8v_AbSensorDisCnt[0]
  88  015F  3C0A        	sz c
  88  0160  2800     R  	jmp _L16
  90  0161              #line 90 "d:\work\project\bintuo-f73\software\bs66f360c\Source\ADC.c"
  90  0161  1F00     E  	clr _gu8v_AbSensorDisCnt[0]
  91  0162              #line 91 "d:\work\project\bintuo-f73\software\bs66f360c\Source\ADC.c"
  91  0162  0700     E  	mov a,_gu16v_AbNumDisValueOld[0]
  91  0163  0080     E  	mov rb,a
  91  0164  0700     E  	mov a,_gu16v_AbNumDisValueOld[1]
  91  0165  0080     E  	mov rc,a
  91  0166  340A        	clr c
  91  0167  1B80     E  	rrc rc
  91  0168  1B80     E  	rrc rb
  91  0169  340A        	clr c
  91  016A  1B80     E  	rrc rc
  91  016B  1B80     E  	rrc rb
  91  016C  0700     E  	mov a,rb
  91  016D  0080     E  	mov _gu8v_AbNumDisValue[0],a
  92  016E              #line 92 "d:\work\project\bintuo-f73\software\bs66f360c\Source\ADC.c"
文件：ADC.c        编译器版本 HGASM 0202 页次9

  92  016E  1F00     E  	clr _gu16v_AbNumDisValueOld[0]
  92  016F  1F00     E  	clr _gu16v_AbNumDisValueOld[1]
  92  0170  2800     R  	jmp _L16
  92  0171              _L15:
  97  0171              #line 97 "d:\work\project\bintuo-f73\software\bs66f360c\Source\ADC.c"
  97  0171  1F00     E  	clr _gu8v_AbNumDisValue[0]
  97  0172              _L16:
 100  0172              #line 100 "d:\work\project\bintuo-f73\software\bs66f360c\Source\ADC.c"
 100  0172  1F00     E  	clr _gu16v_AdcValue2[0]
 100  0173  1F00     E  	clr _gu16v_AdcValue2[1]
 101  0174              #line 101 "d:\work\project\bintuo-f73\software\bs66f360c\Source\ADC.c"
 101  0174  1F00     E  	clr _gu16v_AdMaxTemp2[0]
 101  0175  1F00     E  	clr _gu16v_AdMaxTemp2[1]
 102  0176              #line 102 "d:\work\project\bintuo-f73\software\bs66f360c\Source\ADC.c"
 102  0176  1F80     E  	set _gu16v_AdMinTemp2[0]
 102  0177  1F80     E  	set _gu16v_AdMinTemp2[1]
 104  0178              #line 104 "d:\work\project\bintuo-f73\software\bs66f360c\Source\ADC.c"
 104  0178  1F00     E  	clr _gu16v_AdcValue1[0]
 104  0179  1F00     E  	clr _gu16v_AdcValue1[1]
 105  017A              #line 105 "d:\work\project\bintuo-f73\software\bs66f360c\Source\ADC.c"
 105  017A  1F00     E  	clr _gu16v_AdMaxTemp1[0]
 105  017B  1F00     E  	clr _gu16v_AdMaxTemp1[1]
 106  017C              #line 106 "d:\work\project\bintuo-f73\software\bs66f360c\Source\ADC.c"
 106  017C  1F80     E  	set _gu16v_AdMinTemp1[0]
 106  017D  1F80     E  	set _gu16v_AdMinTemp1[1]
 106  017E              _L12:
 108  017E              #line 108 "d:\work\project\bintuo-f73\software\bs66f360c\Source\ADC.c"
 108  017E  3400     E  	clr _WorkFlag5[0].5
 109  017F              #line 109 "d:\work\project\bintuo-f73\software\bs66f360c\Source\ADC.c"
 109  017F  0F30        	mov a,48
 109  0180  00B0        	mov [48],a
 109  0181              _L5:
 109  0181  0003        	ret
 109  0182              _ADC_Task endp
 109  0182              #line 109 "d:\work\project\bintuo-f73\software\bs66f360c\Source\ADC.c"
 109  0182              #pragma debug scope 1 1
 109  0182              #pragma debug variable 8 1 ___sadol "__sadol" 1
 109  0182              #pragma debug variable 8 1 ___sadoh "__sadoh" 1
 109  0182              #pragma debug struct_end
 109  0182              #pragma debug struct_end
 109  0182              #pragma debug union_end
 109  0182              #pragma debug union_end
 109  0182              #pragma debug variable 43 1 ___sadc0 "__sadc0" 1
 109  0182              
 109  0182              ; output external variables
 109  0182              extern _gu8v_AbNumDisValue:byte
 109  0182              extern _gu8v_AbSensorDisCnt:byte
 109  0182              extern _gu16v_AbNumDisValueOld:byte
 109  0182              extern _gu16v_AbAdcZeroData:byte
 109  0182              extern _gu16v_Ab7P5mmHgData:byte
 109  0182              extern _gu16v_ABAdcSensor:byte
 109  0182              extern _gu8v_NumDisTemp:byte
 109  0182              extern _gu8v_FunNumDisValue:byte
 109  0182              extern _gu16v_FunAdcZeroData:byte
 109  0182              extern _gu16v_Fun7P5mmHgData:byte
 109  0182              extern _gu16v_FunAdcSensor:byte
 109  0182              extern _WorkFlag4:byte
 109  0182              extern _gu8v_AdSampCnt1:byte
 109  0182              extern _gu16v_AdcValue1:byte
 109  0182              extern _gu16v_AdMinTemp1:byte
文件：ADC.c        编译器版本 HGASM 0202 页次10

 109  0182              extern _gu16v_AdMaxTemp1:byte
 109  0182              extern _gu16v_AdcValue2:byte
 109  0182              extern _gu16v_AdMinTemp2:byte
 109  0182              extern _gu16v_AdMaxTemp2:byte
 109  0182              extern _WorkFlag5:byte
 109  0182              extern _builtin_holtek_udivmodhi4_2:byte
 109  0182              extern _builtin_holtek_udivmodhi4:near
 109  0182              extern _builtin_holtek_udivmodqi4_2:byte
 109  0182              extern _builtin_holtek_udivmodqi4:near
 109  0182              
 109  0182              ; 
 109  0182              ; Generated by holtek-gcc v3.19, Wed Jan 07 18:11:20 2026
 109  0182              ; Rebuild 718
 109  0182              ; end of file


        0 Errors, 0