文件：Display.c    编译器版本 HGASM 0202 页次1


   1  0000              ; Generated by holtek-gcc v3.19, Thu Jul 10 20:20:32 2025
   2  0000              ; 
   3  0000              ; Configuration:
   4  0000              ;       with long instruction
   5  0000              ;       Multi-ROM, Multi-RAM
   6  0000              ;       bits_per_rom_unit:16
   7  0000              ;       with mp1
   8  0000              ;       with tbhp, address(0x9)
   9  0000              ;          Use tabrd-const
  10  0000              ;       
  11  0000              ; SFR address of long-instruction arch:
  12  0000              ;    mp0 = -1,1,0
  13  0000              ;    mp1 = 4,3,2
  14  0000              ;    mp2 = 14,13,12
  15  0000              ;    tbp = 9,7,8
  16  0000              ;    acc = 5
  17  0000              ;    pcl = 6
  18  0000              ;    status = 10
  19  0000              ;    bp = 11
  20  0000              ;    intc = 16
  21  0000              ;       
  22  0000              ;       
  23  0000              ; use 'tabrdc' instead of 'tabrd'
  24  0000              ;       
  25  0000              
  26  0000              #pragma translator "holtek-gcc 4.6.4" "3.19" "build 20130711"
  27  0000              ; Rebuild 718
  28  0000              
  29  0000              ir equ [2]
  30  0000              mp equ [3]
  31  0000              sbp equ [4]
  32  0000              acc equ [5]
  33  0000              bp equ [11]
  34  0000              tblp equ [7]
  35  0000              tbhp equ [9]
  36  0000              status equ [10]
  37  0000              c equ [10].0
  38  0000              ac equ [10].1
  39  0000              z equ [10].2
  40  0000              ov equ [10].3
  41  0000              cz equ [10].6
  42  0000              sc equ [10].7
  43  0000              intc equ [16]
  44  0000              
  45  0000              extern ra:byte
  46  0000              extern rb:byte
  47  0000              extern rc:byte
  48  0000              extern rd:byte
  49  0000              extern re:byte
  50  0000              extern rf:byte
  51  0000              extern rg:byte
  52  0000              extern rh:byte
  53  0000              extern _Crom2Prom:near
  54  0000              extern _Crom2PromNext:near
  55  0000              
  56  0000              RAMBANK 0 @BITDATASEC, @BITDATASEC1
  57  0000              @HCCINIT	.section 'data'
  58  0000              @HCCINIT0	.section 'data'
  59  0000              @BITDATASEC	 .section 'data'
文件：Display.ASM  编译器版本 HGASM 0202 页次2

  60  0000              @BITDATASEC1	 .section 'data'
  61  0000              
  62  0000              #pragma debug scope 1 1
  63  0000              	extern __DELAY3:near
  64  0000              	extern __DELAYX3:near
  65  0000              	extern __DELAYX6:near
  66  0000              	extern __DELAYY5:near
  67  0000              	extern __DELAYY3:near
  68  0000              	extern _builtin_holtek_delay_2:byte
  69  0000              public _Dis_SetDisBufferAll
  70  0000              #pragma debug scope 2 1

  41  0000              #line 41 "D:\HF\MDST\Code\BS66F360C_CTOUCH_V512_HF-SC10B-20250630\BS66F360C_CTOUCH_V512_HF-SC10B\BS66F360C\Source\Display.c"
  41  0000              _Dis_SetDisBufferAll .section 'code'
  41  0000              _Dis_SetDisBufferAll proc
  41  0000  00              local _Dis_SetDisBufferAll_2 db 1 dup(?)	; 0,1
  41  0000  0080     R  	mov _Dis_SetDisBufferAll_2[0],a
  41  0001              #pragma debug variable 8 2 _Dis_SetDisBufferAll_2+0 "gubv_setData"
  41  0001  0F08        	mov a,8
  41  0002  0080     E  	mov ra,a
  43  0003              #line 43 "D:\HF\MDST\Code\BS66F360C_CTOUCH_V512_HF-SC10B-20250630\BS66F360C_CTOUCH_V512_HF-SC10B\BS66F360C\Source\Display.c"
  43  0003  1F00     E  	clr rb
  43  0004              _L3:
  45  0004              #line 45 "D:\HF\MDST\Code\BS66F360C_CTOUCH_V512_HF-SC10B-20250630\BS66F360C_CTOUCH_V512_HF-SC10B\BS66F360C\Source\Display.c"
  45  0004  0F00     E  	mov a,low offset _gu8v_DisplayBuf
  45  0005  0300     E  	add a,rb
  45  0006  0083        	mov mp,a
  45  0007  0F00     E  	mov a,high offset _gu8v_DisplayBuf
  45  0008  1F04        	clr sbp
  45  0009  1384        	adcm a,sbp
  45  000A  0700     R  	mov a,_Dis_SetDisBufferAll_2[0]
  45  000B  0082        	mov ir,a
  43  000C              #line 43 "D:\HF\MDST\Code\BS66F360C_CTOUCH_V512_HF-SC10B-20250630\BS66F360C_CTOUCH_V512_HF-SC10B\BS66F360C\Source\Display.c"
  43  000C  1480     E  	inc rb
  43  000D  1780     E  	sdz ra
  43  000E  2800     R  	jmp _L3
  43  000F  0003        	ret
  43  0010              _Dis_SetDisBufferAll endp
  43  0010              #line 43 "D:\HF\MDST\Code\BS66F360C_CTOUCH_V512_HF-SC10B-20250630\BS66F360C_CTOUCH_V512_HF-SC10B\BS66F360C\Source\Display.c"
  43  0010              #pragma debug scope 1 1
  43  0010              public _Display_Task
  43  0010              #pragma debug scope 3 1
  50  0010              #line 50 "D:\HF\MDST\Code\BS66F360C_CTOUCH_V512_HF-SC10B-20250630\BS66F360C_CTOUCH_V512_HF-SC10B\BS66F360C\Source\Display.c"
  50  0000              _Display_Task .section 'code'
  50  0000              _Display_Task proc
  50  0000  0002[           local _Display_Task_2 db 2 dup(?)	; 0,2
            00
            ]
  50  0002              #pragma debug pointer 42 8 3
  50  0002              #pragma debug pointer 42 8 3
  50  0002              #pragma debug variable 42 3 _Display_Task_2+0 "pBuffer"
  55  0002              #line 55 "D:\HF\MDST\Code\BS66F360C_CTOUCH_V512_HF-SC10B-20250630\BS66F360C_CTOUCH_V512_HF-SC10B\BS66F360C\Source\Display.c"
  55  0000  0F00        	mov a,0
  55  0001              	fcall _Dis_SetDisBufferAll
  56  0008              #line 56 "D:\HF\MDST\Code\BS66F360C_CTOUCH_V512_HF-SC10B-20250630\BS66F360C_CTOUCH_V512_HF-SC10B\BS66F360C\Source\Display.c"
  56  0008  0700     E  	mov a,_gu8v_WorkMode[0]
  56  0009  0080     R  	mov _Display_Task_2[0],a
  56  000A  0700     R  	mov a,_Display_Task_2[0]
  56  000B  0A01        	sub a,1
  56  000C  3D0A        	sz z
文件：Display.c    编译器版本 HGASM 0202 页次3

  56  000D  2800     R  	jmp _L80
  56  000E  0A01        	sub a,(2)-(1)
  56  000F  3D0A        	sz z
  56  0010  2800     R  	jmp _L8
  56  0011              #line 56 "D:\HF\MDST\Code\BS66F360C_CTOUCH_V512_HF-SC10B-20250630\BS66F360C_CTOUCH_V512_HF-SC10B\BS66F360C\Source\Display.c"
  56  0011  0700     R  	mov a,_Display_Task_2[0]
  56  0012  0A03        	sub a,3
  56  0013  390A        	snz z
  56  0014  2800     R  	jmp _L6
  56  0015  2800     R  	jmp _L81
  56  0016              _L8:
  62  0016              #line 62 "D:\HF\MDST\Code\BS66F360C_CTOUCH_V512_HF-SC10B-20250630\BS66F360C_CTOUCH_V512_HF-SC10B\BS66F360C\Source\Display.c"
  62  0016  0F30        	mov a,48
  62  0017  0580     E  	orm a,_gu8v_DisplayBuf[5]
  63  0018              #line 63 "D:\HF\MDST\Code\BS66F360C_CTOUCH_V512_HF-SC10B-20250630\BS66F360C_CTOUCH_V512_HF-SC10B\BS66F360C\Source\Display.c"
  63  0018  2800     R  	jmp _L6
  63  0019              _L81:
  65  0019              #line 65 "D:\HF\MDST\Code\BS66F360C_CTOUCH_V512_HF-SC10B-20250630\BS66F360C_CTOUCH_V512_HF-SC10B\BS66F360C\Source\Display.c"
  65  0019  3800     E  	snz _WorkFlag5[0].1
  65  001A  2800     R  	jmp _L10
  67  001B              #line 67 "D:\HF\MDST\Code\BS66F360C_CTOUCH_V512_HF-SC10B-20250630\BS66F360C_CTOUCH_V512_HF-SC10B\BS66F360C\Source\Display.c"
  67  001B  3800     E  	snz _WorkFlag4[0].3
  67  001C  2800     R  	jmp _L11
  69  001D              #line 69 "D:\HF\MDST\Code\BS66F360C_CTOUCH_V512_HF-SC10B-20250630\BS66F360C_CTOUCH_V512_HF-SC10B\BS66F360C\Source\Display.c"
  69  001D  3000     E  	set _gu8v_DisplayBuf[5].1
  70  001E              #line 70 "D:\HF\MDST\Code\BS66F360C_CTOUCH_V512_HF-SC10B-20250630\BS66F360C_CTOUCH_V512_HF-SC10B\BS66F360C\Source\Display.c"
  70  001E  0700     E  	mov a,_gu8v_CalModeIndex[0]
  70  001F  0080     R  	mov _Display_Task_2[0],a
  70  0020  0700     R  	mov a,_Display_Task_2[0]
  70  0021  0A00        	sub a,0
  70  0022  3D0A        	sz z
  70  0023  2800     R  	jmp _L13
  70  0024  0A01        	sub a,(1)-(0)
  70  0025  3D0A        	sz z
  70  0026  2800     R  	jmp _L14
  70  0027  0700     R  	mov a,_Display_Task_2[0]
  70  0028  0A02        	sub a,2
  70  0029  3D0A        	sz z
  70  002A  2800     R  	jmp _L15
  70  002B  0700     R  	mov a,_Display_Task_2[0]
  70  002C  0A03        	sub a,3
  70  002D  390A        	snz z
  70  002E  2800     R  	jmp _L77
  92  002F              #line 92 "D:\HF\MDST\Code\BS66F360C_CTOUCH_V512_HF-SC10B-20250630\BS66F360C_CTOUCH_V512_HF-SC10B\BS66F360C\Source\Display.c"
  92  002F  0F5C        	mov a,92
  92  0030  0080     E  	mov _gu8v_DisplayBuf[1],a
  93  0031              #line 93 "D:\HF\MDST\Code\BS66F360C_CTOUCH_V512_HF-SC10B-20250630\BS66F360C_CTOUCH_V512_HF-SC10B\BS66F360C\Source\Display.c"
  93  0031  0F70        	mov a,112
  93  0032  0080     E  	mov _gu8v_DisplayBuf[2],a
  94  0033              #line 94 "D:\HF\MDST\Code\BS66F360C_CTOUCH_V512_HF-SC10B-20250630\BS66F360C_CTOUCH_V512_HF-SC10B\BS66F360C\Source\Display.c"
  94  0033  2800     R  	jmp _L6
  94  0034              _L13:
  73  0034              #line 73 "D:\HF\MDST\Code\BS66F360C_CTOUCH_V512_HF-SC10B-20250630\BS66F360C_CTOUCH_V512_HF-SC10B\BS66F360C\Source\Display.c"
  73  0034  0F39        	mov a,57
  73  0035  0080     E  	mov _gu8v_DisplayBuf[0],a
  74  0036              #line 74 "D:\HF\MDST\Code\BS66F360C_CTOUCH_V512_HF-SC10B-20250630\BS66F360C_CTOUCH_V512_HF-SC10B\BS66F360C\Source\Display.c"
  74  0036  0F77        	mov a,119
  74  0037  0080     E  	mov _gu8v_DisplayBuf[1],a
  75  0038              #line 75 "D:\HF\MDST\Code\BS66F360C_CTOUCH_V512_HF-SC10B-20250630\BS66F360C_CTOUCH_V512_HF-SC10B\BS66F360C\Source\Display.c"
  75  0038  0F3F        	mov a,63
文件：Display.c    编译器版本 HGASM 0202 页次4

  75  0039  0080     E  	mov _gu8v_DisplayBuf[2],a
  76  003A              #line 76 "D:\HF\MDST\Code\BS66F360C_CTOUCH_V512_HF-SC10B-20250630\BS66F360C_CTOUCH_V512_HF-SC10B\BS66F360C\Source\Display.c"
  76  003A  3C00     E  	sz _WorkFlag4[0].1
  76  003B  2800     R  	jmp _L6
  78  003C              #line 78 "D:\HF\MDST\Code\BS66F360C_CTOUCH_V512_HF-SC10B-20250630\BS66F360C_CTOUCH_V512_HF-SC10B\BS66F360C\Source\Display.c"
  78  003C  0F01        	mov a,1
  78  003D  0080     E  	mov _gu8v_CalModeIndex[0],a
  78  003E  2800     R  	jmp _L6
  78  003F              _L14:
  82  003F              #line 82 "D:\HF\MDST\Code\BS66F360C_CTOUCH_V512_HF-SC10B-20250630\BS66F360C_CTOUCH_V512_HF-SC10B\BS66F360C\Source\Display.c"
  82  003F  0F39        	mov a,57
  82  0040  0080     E  	mov _gu8v_DisplayBuf[0],a
  83  0041              #line 83 "D:\HF\MDST\Code\BS66F360C_CTOUCH_V512_HF-SC10B-20250630\BS66F360C_CTOUCH_V512_HF-SC10B\BS66F360C\Source\Display.c"
  83  0041  0F77        	mov a,119
  83  0042  0080     E  	mov _gu8v_DisplayBuf[1],a
  84  0043              #line 84 "D:\HF\MDST\Code\BS66F360C_CTOUCH_V512_HF-SC10B-20250630\BS66F360C_CTOUCH_V512_HF-SC10B\BS66F360C\Source\Display.c"
  84  0043  0F06        	mov a,6
  84  0044  0080     E  	mov _gu8v_DisplayBuf[2],a
  85  0045              #line 85 "D:\HF\MDST\Code\BS66F360C_CTOUCH_V512_HF-SC10B-20250630\BS66F360C_CTOUCH_V512_HF-SC10B\BS66F360C\Source\Display.c"
  85  0045  2800     R  	jmp _L6
  85  0046              _L15:
  87  0046              #line 87 "D:\HF\MDST\Code\BS66F360C_CTOUCH_V512_HF-SC10B-20250630\BS66F360C_CTOUCH_V512_HF-SC10B\BS66F360C\Source\Display.c"
  87  0046  0F39        	mov a,57
  87  0047  0080     E  	mov _gu8v_DisplayBuf[0],a
  88  0048              #line 88 "D:\HF\MDST\Code\BS66F360C_CTOUCH_V512_HF-SC10B-20250630\BS66F360C_CTOUCH_V512_HF-SC10B\BS66F360C\Source\Display.c"
  88  0048  0F77        	mov a,119
  88  0049  0080     E  	mov _gu8v_DisplayBuf[1],a
  89  004A              #line 89 "D:\HF\MDST\Code\BS66F360C_CTOUCH_V512_HF-SC10B-20250630\BS66F360C_CTOUCH_V512_HF-SC10B\BS66F360C\Source\Display.c"
  89  004A  0F5B        	mov a,91
  89  004B  0080     E  	mov _gu8v_DisplayBuf[2],a
  90  004C              #line 90 "D:\HF\MDST\Code\BS66F360C_CTOUCH_V512_HF-SC10B-20250630\BS66F360C_CTOUCH_V512_HF-SC10B\BS66F360C\Source\Display.c"
  90  004C  2800     R  	jmp _L6
  90  004D              _L77:
  96  004D              #line 96 "D:\HF\MDST\Code\BS66F360C_CTOUCH_V512_HF-SC10B-20250630\BS66F360C_CTOUCH_V512_HF-SC10B\BS66F360C\Source\Display.c"
  96  004D  3800     E  	snz _TimeFlag1[0].6
  96  004E  2800     R  	jmp _L6
  98  004F              #line 98 "D:\HF\MDST\Code\BS66F360C_CTOUCH_V512_HF-SC10B-20250630\BS66F360C_CTOUCH_V512_HF-SC10B\BS66F360C\Source\Display.c"
  98  004F  0F79        	mov a,121
  98  0050  0080     E  	mov _gu8v_DisplayBuf[0],a
  99  0051              #line 99 "D:\HF\MDST\Code\BS66F360C_CTOUCH_V512_HF-SC10B-20250630\BS66F360C_CTOUCH_V512_HF-SC10B\BS66F360C\Source\Display.c"
  99  0051  0F50        	mov a,80
  99  0052  0080     E  	mov _gu8v_DisplayBuf[1],a
 100  0053              #line 100 "D:\HF\MDST\Code\BS66F360C_CTOUCH_V512_HF-SC10B-20250630\BS66F360C_CTOUCH_V512_HF-SC10B\BS66F360C\Source\Display.c"
 100  0053  0F50        	mov a,80
 100  0054  0080     E  	mov _gu8v_DisplayBuf[2],a
 100  0055  2800     R  	jmp _L6
 100  0056              _L11:
 107  0056              #line 107 "D:\HF\MDST\Code\BS66F360C_CTOUCH_V512_HF-SC10B-20250630\BS66F360C_CTOUCH_V512_HF-SC10B\BS66F360C\Source\Display.c"
 107  0056  3800     E  	snz _TimeFlag1[0].6
 107  0057  2800     R  	jmp _L6
 107  0058              _L80:
 109  0058              #line 109 "D:\HF\MDST\Code\BS66F360C_CTOUCH_V512_HF-SC10B-20250630\BS66F360C_CTOUCH_V512_HF-SC10B\BS66F360C\Source\Display.c"
 109  0058  0FFF        	mov a,255
 109  0059              	fcall _Dis_SetDisBufferAll
 109  0060  2800     R  	jmp _L6
 109  0061              _L10:
 115  0061              #line 115 "D:\HF\MDST\Code\BS66F360C_CTOUCH_V512_HF-SC10B-20250630\BS66F360C_CTOUCH_V512_HF-SC10B\BS66F360C\Source\Display.c"
 115  0061  1E00     E  	snz _gu8v_PreKeyDownDisTime[0]
 115  0062  2800     R  	jmp _L19
 117  0063              #line 117 "D:\HF\MDST\Code\BS66F360C_CTOUCH_V512_HF-SC10B-20250630\BS66F360C_CTOUCH_V512_HF-SC10B\BS66F360C\Source\Display.c"
文件：Display.c    编译器版本 HGASM 0202 页次5

 117  0063  3C00     E  	sz _TimeFlag1[0].6
 117  0064  2800     R  	jmp _L20
 119  0065              #line 119 "D:\HF\MDST\Code\BS66F360C_CTOUCH_V512_HF-SC10B-20250630\BS66F360C_CTOUCH_V512_HF-SC10B\BS66F360C\Source\Display.c"
 119  0065  0700     E  	mov a,_gu8v_PressureMode[0]
 119  0066  0B04        	add a,4
 119  0067  0080     E  	mov rb,a
 120  0068              #line 120 "D:\HF\MDST\Code\BS66F360C_CTOUCH_V512_HF-SC10B-20250630\BS66F360C_CTOUCH_V512_HF-SC10B\BS66F360C\Source\Display.c"
 120  0068  1F00     E  	clr _builtin_holtek_udivmodqi4_2[3]
 120  0069  0700     E  	mov a,rb
 120  006A  0080     E  	mov _builtin_holtek_udivmodqi4_2[0],a
 120  006B  0F0A        	mov a,10
 120  006C  0080     E  	mov _builtin_holtek_udivmodqi4_2[1],a
 120  006D              	fcall _builtin_holtek_udivmodqi4
 120  0074  0700     E  	mov a,_builtin_holtek_udivmodqi4_2[0]
 120  0075  0080     E  	mov ra,a
 121  0076              #line 121 "D:\HF\MDST\Code\BS66F360C_CTOUCH_V512_HF-SC10B-20250630\BS66F360C_CTOUCH_V512_HF-SC10B\BS66F360C\Source\Display.c"
 121  0076  1F00     E  	clr _builtin_holtek_udivmodqi4_2[3]
 121  0077  0700     E  	mov a,rb
 121  0078  0080     E  	mov _builtin_holtek_udivmodqi4_2[0],a
 121  0079  0F0A        	mov a,10
 121  007A  0080     E  	mov _builtin_holtek_udivmodqi4_2[1],a
 121  007B              	fcall _builtin_holtek_udivmodqi4
 121  0082  0700     E  	mov a,_builtin_holtek_udivmodqi4_2[2]
 121  0083  0080     E  	mov rb,a
 122  0084              #line 122 "D:\HF\MDST\Code\BS66F360C_CTOUCH_V512_HF-SC10B-20250630\BS66F360C_CTOUCH_V512_HF-SC10B\BS66F360C\Source\Display.c"
 122  0084  1E00     E  	snz ra
 122  0085  2800     R  	jmp _L21
 122  0086  0F00     R  	mov a,low offset _R_NumTable
 122  0087  0300     E  	add a,ra
 122  0088  0083        	mov mp,a
 122  0089  0F00     R  	mov a,high offset _R_NumTable
 122  008A  1F04        	clr sbp
 122  008B  1384        	adcm a,sbp
 122  008C              	fcall _Crom2Prom
 122  0093  0080     E  	mov _gu8v_DisplayBuf[0],a
 122  0094              _L21:
 123  0094              #line 123 "D:\HF\MDST\Code\BS66F360C_CTOUCH_V512_HF-SC10B-20250630\BS66F360C_CTOUCH_V512_HF-SC10B\BS66F360C\Source\Display.c"
 123  0094  0F00     R  	mov a,low offset _R_NumTable
 123  0095  0300     E  	add a,rb
 123  0096  0083        	mov mp,a
 123  0097  0F00     R  	mov a,high offset _R_NumTable
 123  0098  1F04        	clr sbp
 123  0099  1384        	adcm a,sbp
 123  009A              	fcall _Crom2Prom
 123  00A1  0080     E  	mov ra,a
 123  00A2  3000     E  	set ra.7
 123  00A3  0700     E  	mov a,ra
 123  00A4  0080     E  	mov _gu8v_DisplayBuf[1],a
 123  00A5  2800     R  	jmp _L79
 123  00A6              _L19:
 129  00A6              #line 129 "D:\HF\MDST\Code\BS66F360C_CTOUCH_V512_HF-SC10B-20250630\BS66F360C_CTOUCH_V512_HF-SC10B\BS66F360C\Source\Display.c"
 129  00A6  3C00     E  	sz _WorkFlag6[0].0
 129  00A7  2800     R  	jmp _L22
 129  00A8  1E00     E  	snz _WorkModeFlag[0]
 129  00A9  2800     R  	jmp _L22
 131  00AA              #line 131 "D:\HF\MDST\Code\BS66F360C_CTOUCH_V512_HF-SC10B-20250630\BS66F360C_CTOUCH_V512_HF-SC10B\BS66F360C\Source\Display.c"
 131  00AA  0FE6        	mov a,230
 131  00AB  0080     E  	mov _gu8v_DisplayBuf[1],a
 131  00AC              _L79:
 132  00AC              #line 132 "D:\HF\MDST\Code\BS66F360C_CTOUCH_V512_HF-SC10B-20250630\BS66F360C_CTOUCH_V512_HF-SC10B\BS66F360C\Source\Display.c"
文件：Display.c    编译器版本 HGASM 0202 页次6

 132  00AC  0F3F        	mov a,63
 132  00AD  0080     E  	mov _gu8v_DisplayBuf[2],a
 132  00AE  2800     R  	jmp _L20
 132  00AF              _L22:
 136  00AF              #line 136 "D:\HF\MDST\Code\BS66F360C_CTOUCH_V512_HF-SC10B-20250630\BS66F360C_CTOUCH_V512_HF-SC10B\BS66F360C\Source\Display.c"
 136  00AF  0700     E  	mov a,_gu8v_AbNumDisCurrentValue[0]
 136  00B0  0080     E  	mov ra,a
 137  00B1              #line 137 "D:\HF\MDST\Code\BS66F360C_CTOUCH_V512_HF-SC10B-20250630\BS66F360C_CTOUCH_V512_HF-SC10B\BS66F360C\Source\Display.c"
 137  00B1  1F00     E  	clr _builtin_holtek_udivmodqi4_2[3]
 137  00B2  0700     E  	mov a,ra
 137  00B3  0080     E  	mov _builtin_holtek_udivmodqi4_2[0],a
 137  00B4  0F64        	mov a,100
 137  00B5  0080     E  	mov _builtin_holtek_udivmodqi4_2[1],a
 137  00B6              	fcall _builtin_holtek_udivmodqi4
 137  00BD  0700     E  	mov a,_builtin_holtek_udivmodqi4_2[2]
 137  00BE  0080     E  	mov rb,a
 138  00BF              #line 138 "D:\HF\MDST\Code\BS66F360C_CTOUCH_V512_HF-SC10B-20250630\BS66F360C_CTOUCH_V512_HF-SC10B\BS66F360C\Source\Display.c"
 138  00BF  1F00     E  	clr _builtin_holtek_udivmodqi4_2[3]
 138  00C0  0700     E  	mov a,ra
 138  00C1  0080     E  	mov _builtin_holtek_udivmodqi4_2[0],a
 138  00C2  0F64        	mov a,100
 138  00C3  0080     E  	mov _builtin_holtek_udivmodqi4_2[1],a
 138  00C4              	fcall _builtin_holtek_udivmodqi4
 138  00CB  0700     E  	mov a,_builtin_holtek_udivmodqi4_2[0]
 138  00CC  0080     E  	mov ra,a
 139  00CD              #line 139 "D:\HF\MDST\Code\BS66F360C_CTOUCH_V512_HF-SC10B-20250630\BS66F360C_CTOUCH_V512_HF-SC10B\BS66F360C\Source\Display.c"
 139  00CD  1F00     E  	clr _builtin_holtek_udivmodqi4_2[3]
 139  00CE  0700     E  	mov a,rb
 139  00CF  0080     E  	mov _builtin_holtek_udivmodqi4_2[0],a
 139  00D0  0F0A        	mov a,10
 139  00D1  0080     E  	mov _builtin_holtek_udivmodqi4_2[1],a
 139  00D2              	fcall _builtin_holtek_udivmodqi4
 139  00D9  0700     E  	mov a,_builtin_holtek_udivmodqi4_2[0]
 139  00DA  0080     E  	mov rc,a
 140  00DB              #line 140 "D:\HF\MDST\Code\BS66F360C_CTOUCH_V512_HF-SC10B-20250630\BS66F360C_CTOUCH_V512_HF-SC10B\BS66F360C\Source\Display.c"
 140  00DB  1F00     E  	clr _builtin_holtek_udivmodqi4_2[3]
 140  00DC  0700     E  	mov a,rb
 140  00DD  0080     E  	mov _builtin_holtek_udivmodqi4_2[0],a
 140  00DE  0F0A        	mov a,10
 140  00DF  0080     E  	mov _builtin_holtek_udivmodqi4_2[1],a
 140  00E0              	fcall _builtin_holtek_udivmodqi4
 140  00E7  0700     E  	mov a,_builtin_holtek_udivmodqi4_2[2]
 140  00E8  0080     E  	mov rb,a
 141  00E9              #line 141 "D:\HF\MDST\Code\BS66F360C_CTOUCH_V512_HF-SC10B-20250630\BS66F360C_CTOUCH_V512_HF-SC10B\BS66F360C\Source\Display.c"
 141  00E9  1E00     E  	snz ra
 141  00EA  2800     R  	jmp _L23
 141  00EB  0F00     R  	mov a,low offset _R_NumTable
 141  00EC  0300     E  	add a,ra
 141  00ED  0083        	mov mp,a
 141  00EE  0F00     R  	mov a,high offset _R_NumTable
 141  00EF  1F04        	clr sbp
 141  00F0  1384        	adcm a,sbp
 141  00F1              	fcall _Crom2Prom
 141  00F8  0080     E  	mov _gu8v_DisplayBuf[0],a
 141  00F9              _L23:
 142  00F9              #line 142 "D:\HF\MDST\Code\BS66F360C_CTOUCH_V512_HF-SC10B-20250630\BS66F360C_CTOUCH_V512_HF-SC10B\BS66F360C\Source\Display.c"
 142  00F9  0F00     R  	mov a,low offset _R_NumTable
 142  00FA  0300     E  	add a,rc
 142  00FB  0083        	mov mp,a
 142  00FC  0F00     R  	mov a,high offset _R_NumTable
文件：Display.c    编译器版本 HGASM 0202 页次7

 142  00FD  1F04        	clr sbp
 142  00FE  1384        	adcm a,sbp
 142  00FF              	fcall _Crom2Prom
 142  0106  0080     E  	mov ra,a
 142  0107  3000     E  	set ra.7
 142  0108  0700     E  	mov a,ra
 142  0109  0080     E  	mov _gu8v_DisplayBuf[1],a
 143  010A              #line 143 "D:\HF\MDST\Code\BS66F360C_CTOUCH_V512_HF-SC10B-20250630\BS66F360C_CTOUCH_V512_HF-SC10B\BS66F360C\Source\Display.c"
 143  010A  0F00     R  	mov a,low offset _R_NumTable
 143  010B  0300     E  	add a,rb
 143  010C  0083        	mov mp,a
 143  010D  0F00     R  	mov a,high offset _R_NumTable
 143  010E  1F04        	clr sbp
 143  010F  1384        	adcm a,sbp
 143  0110              	fcall _Crom2Prom
 143  0117  0080     E  	mov _gu8v_DisplayBuf[2],a
 143  0118              _L20:
 146  0118              #line 146 "D:\HF\MDST\Code\BS66F360C_CTOUCH_V512_HF-SC10B-20250630\BS66F360C_CTOUCH_V512_HF-SC10B\BS66F360C\Source\Display.c"
 146  0118  3800     E  	snz _WorkModeFlag[0].0
 146  0119  2800     R  	jmp _L24
 146  011A  3000     E  	set _gu8v_DisplayBuf[3].5
 146  011B              _L24:
 147  011B              #line 147 "D:\HF\MDST\Code\BS66F360C_CTOUCH_V512_HF-SC10B-20250630\BS66F360C_CTOUCH_V512_HF-SC10B\BS66F360C\Source\Display.c"
 147  011B  3800     E  	snz _WorkModeFlag[0].1
 147  011C  2800     R  	jmp _L25
 147  011D  3000     E  	set _gu8v_DisplayBuf[4].1
 147  011E              _L25:
 148  011E              #line 148 "D:\HF\MDST\Code\BS66F360C_CTOUCH_V512_HF-SC10B-20250630\BS66F360C_CTOUCH_V512_HF-SC10B\BS66F360C\Source\Display.c"
 148  011E  3800     E  	snz _WorkModeFlag[0].2
 148  011F  2800     R  	jmp _L26
 148  0120  3000     E  	set _gu8v_DisplayBuf[3].7
 148  0121              _L26:
 149  0121              #line 149 "D:\HF\MDST\Code\BS66F360C_CTOUCH_V512_HF-SC10B-20250630\BS66F360C_CTOUCH_V512_HF-SC10B\BS66F360C\Source\Display.c"
 149  0121  3800     E  	snz _WorkModeFlag[0].3
 149  0122  2800     R  	jmp _L27
 149  0123  3000     E  	set _gu8v_DisplayBuf[3].6
 149  0124              _L27:
 150  0124              #line 150 "D:\HF\MDST\Code\BS66F360C_CTOUCH_V512_HF-SC10B-20250630\BS66F360C_CTOUCH_V512_HF-SC10B\BS66F360C\Source\Display.c"
 150  0124  3800     E  	snz _WorkModeFlag[0].4
 150  0125  2800     R  	jmp _L28
 150  0126  3000     E  	set _gu8v_DisplayBuf[4].0
 150  0127              _L28:
 152  0127              #line 152 "D:\HF\MDST\Code\BS66F360C_CTOUCH_V512_HF-SC10B-20250630\BS66F360C_CTOUCH_V512_HF-SC10B\BS66F360C\Source\Display.c"
 152  0127  3800     E  	snz _WorkFlag5[0].3
 152  0128  2800     R  	jmp _L29
 152  0129  3000     E  	set _gu8v_DisplayBuf[5].0
 152  012A              _L29:
 153  012A              #line 153 "D:\HF\MDST\Code\BS66F360C_CTOUCH_V512_HF-SC10B-20250630\BS66F360C_CTOUCH_V512_HF-SC10B\BS66F360C\Source\Display.c"
 153  012A  3800     E  	snz _WorkFlag5[0].4
 153  012B  2800     R  	jmp _L30
 153  012C  3000     E  	set _gu8v_DisplayBuf[3].3
 153  012D              _L30:
 155  012D              #line 155 "D:\HF\MDST\Code\BS66F360C_CTOUCH_V512_HF-SC10B-20250630\BS66F360C_CTOUCH_V512_HF-SC10B\BS66F360C\Source\Display.c"
 155  012D  3C00     E  	sz _WorkFlag4[0].5
 155  012E  2800     R  	jmp _L31
 155  012F  3000     E  	set _gu8v_DisplayBuf[4].6
 155  0130              _L31:
 157  0130              #line 157 "D:\HF\MDST\Code\BS66F360C_CTOUCH_V512_HF-SC10B-20250630\BS66F360C_CTOUCH_V512_HF-SC10B\BS66F360C\Source\Display.c"
 157  0130  3000     E  	set _gu8v_DisplayBuf[4].5
 158  0131              #line 158 "D:\HF\MDST\Code\BS66F360C_CTOUCH_V512_HF-SC10B-20250630\BS66F360C_CTOUCH_V512_HF-SC10B\BS66F360C\Source\Display.c"
文件：Display.c    编译器版本 HGASM 0202 页次8

 158  0131  3C00     E  	sz _WorkFlag6[0].2
 158  0132  2800     R  	jmp _L32
 158  0133  3800     E  	snz _WorkFlag6[0].3
 158  0134  2800     R  	jmp _L33
 158  0135              _L32:
 158  0135  3000     E  	set _gu8v_DisplayBuf[5].7
 158  0136  2800     R  	jmp _L34
 158  0137              _L33:
 159  0137              #line 159 "D:\HF\MDST\Code\BS66F360C_CTOUCH_V512_HF-SC10B-20250630\BS66F360C_CTOUCH_V512_HF-SC10B\BS66F360C\Source\Display.c"
 159  0137  3000     E  	set _gu8v_DisplayBuf[4].7
 159  0138              _L34:
 160  0138              #line 160 "D:\HF\MDST\Code\BS66F360C_CTOUCH_V512_HF-SC10B-20250630\BS66F360C_CTOUCH_V512_HF-SC10B\BS66F360C\Source\Display.c"
 160  0138  0F06        	mov a,6
 160  0139  0580     E  	orm a,_gu8v_DisplayBuf[5]
 161  013A              #line 161 "D:\HF\MDST\Code\BS66F360C_CTOUCH_V512_HF-SC10B-20250630\BS66F360C_CTOUCH_V512_HF-SC10B\BS66F360C\Source\Display.c"
 161  013A  0F30        	mov a,48
 161  013B  0580     E  	orm a,_gu8v_DisplayBuf[5]
 162  013C              #line 162 "D:\HF\MDST\Code\BS66F360C_CTOUCH_V512_HF-SC10B-20250630\BS66F360C_CTOUCH_V512_HF-SC10B\BS66F360C\Source\Display.c"
 162  013C  3800     E  	snz _WorkFlag5[0].2
 162  013D  2800     R  	jmp _L35
 162  013E  3000     E  	set _gu8v_DisplayBuf[3].1
 162  013F  2800     R  	jmp _L6
 162  0140              _L35:
 166  0140              #line 166 "D:\HF\MDST\Code\BS66F360C_CTOUCH_V512_HF-SC10B-20250630\BS66F360C_CTOUCH_V512_HF-SC10B\BS66F360C\Source\Display.c"
 166  0140  3000     E  	set _gu8v_DisplayBuf[3].0
 167  0141              #line 167 "D:\HF\MDST\Code\BS66F360C_CTOUCH_V512_HF-SC10B-20250630\BS66F360C_CTOUCH_V512_HF-SC10B\BS66F360C\Source\Display.c"
 167  0141  0700     E  	mov a,_gu8v_JiaoTiMode[0]
 167  0142  0080     R  	mov _Display_Task_2[0],a
 167  0143  1700     R  	sdza _Display_Task_2[0]
 167  0144  2800     R  	jmp _LI1
 167  0145  2800     R  	jmp _L37
 167  0146              _LI1:
 167  0146  0700     R  	mov a,_Display_Task_2[0]
 167  0147  0A02        	sub a,2
 167  0148  390A        	snz z
 167  0149  2800     R  	jmp _L78
 170  014A              #line 170 "D:\HF\MDST\Code\BS66F360C_CTOUCH_V512_HF-SC10B-20250630\BS66F360C_CTOUCH_V512_HF-SC10B\BS66F360C\Source\Display.c"
 170  014A  3000     E  	set _gu8v_DisplayBuf[4].4
 171  014B              #line 171 "D:\HF\MDST\Code\BS66F360C_CTOUCH_V512_HF-SC10B-20250630\BS66F360C_CTOUCH_V512_HF-SC10B\BS66F360C\Source\Display.c"
 171  014B  2800     R  	jmp _L6
 171  014C              _L37:
 173  014C              #line 173 "D:\HF\MDST\Code\BS66F360C_CTOUCH_V512_HF-SC10B-20250630\BS66F360C_CTOUCH_V512_HF-SC10B\BS66F360C\Source\Display.c"
 173  014C  3000     E  	set _gu8v_DisplayBuf[4].3
 174  014D              #line 174 "D:\HF\MDST\Code\BS66F360C_CTOUCH_V512_HF-SC10B-20250630\BS66F360C_CTOUCH_V512_HF-SC10B\BS66F360C\Source\Display.c"
 174  014D  2800     R  	jmp _L6
 174  014E              _L78:
 176  014E              #line 176 "D:\HF\MDST\Code\BS66F360C_CTOUCH_V512_HF-SC10B-20250630\BS66F360C_CTOUCH_V512_HF-SC10B\BS66F360C\Source\Display.c"
 176  014E  3000     E  	set _gu8v_DisplayBuf[4].2
 176  014F              _L6:
 186  014F              #line 186 "D:\HF\MDST\Code\BS66F360C_CTOUCH_V512_HF-SC10B-20250630\BS66F360C_CTOUCH_V512_HF-SC10B\BS66F360C\Source\Display.c"
 186  014F              	fcall _InitIoPort
 187  0156              #line 187 "D:\HF\MDST\Code\BS66F360C_CTOUCH_V512_HF-SC10B-20250630\BS66F360C_CTOUCH_V512_HF-SC10B\BS66F360C\Source\Display.c"
 187  0156  0F03        	mov a,3
 187  0157              	fcall _SendCommand
 188  015E              #line 188 "D:\HF\MDST\Code\BS66F360C_CTOUCH_V512_HF-SC10B-20250630\BS66F360C_CTOUCH_V512_HF-SC10B\BS66F360C\Source\Display.c"
 188  015E  0F40        	mov a,64
 188  015F              	fcall _SendCommand
 189  0166              #line 189 "D:\HF\MDST\Code\BS66F360C_CTOUCH_V512_HF-SC10B-20250630\BS66F360C_CTOUCH_V512_HF-SC10B\BS66F360C\Source\Display.c"
 189  0166  0FC0        	mov a,192
 189  0167              	fcall _SendCommand
文件：Display.c    编译器版本 HGASM 0202 页次9

 185  016E              #line 185 "D:\HF\MDST\Code\BS66F360C_CTOUCH_V512_HF-SC10B-20250630\BS66F360C_CTOUCH_V512_HF-SC10B\BS66F360C\Source\Display.c"
 185  016E  0F00     E  	mov a,low offset _gu8v_DisplayBuf
 185  016F  0080     R  	mov _Display_Task_2[0],a
 185  0170  0F00     E  	mov a,high offset _gu8v_DisplayBuf
 185  0171  0080     R  	mov _Display_Task_2[1],a
 185  0172              _L40:
 192  0172              #line 192 "D:\HF\MDST\Code\BS66F360C_CTOUCH_V512_HF-SC10B-20250630\BS66F360C_CTOUCH_V512_HF-SC10B\BS66F360C\Source\Display.c"
 192  0172  0700     R  	mov a,_Display_Task_2[0]
 192  0173  0083        	mov mp,a
 192  0174  0700     R  	mov a,_Display_Task_2[1]
 192  0175  0084        	mov sbp,a
 192  0176              	fcall _Crom2Prom
 192  017D  0080     E  	mov ra,a
 192  017E  0700     E  	mov a,ra
 192  017F              	fcall _SendByte
 193  0186              #line 193 "D:\HF\MDST\Code\BS66F360C_CTOUCH_V512_HF-SC10B-20250630\BS66F360C_CTOUCH_V512_HF-SC10B\BS66F360C\Source\Display.c"
 193  0186  0F00        	mov a,0
 193  0187              	fcall _SendByte
 194  018E              #line 194 "D:\HF\MDST\Code\BS66F360C_CTOUCH_V512_HF-SC10B-20250630\BS66F360C_CTOUCH_V512_HF-SC10B\BS66F360C\Source\Display.c"
 194  018E  1480     R  	inc _Display_Task_2[0]
 194  018F  3D0A        	sz z
 194  0190  1480     R  	inc _Display_Task_2[1]
 190  0191              #line 190 "D:\HF\MDST\Code\BS66F360C_CTOUCH_V512_HF-SC10B-20250630\BS66F360C_CTOUCH_V512_HF-SC10B\BS66F360C\Source\Display.c"
 190  0191  0700     R  	mov a,_Display_Task_2[0]
 190  0192  0A00     E  	sub a,low offset _gu8v_DisplayBuf[7]
 190  0193  0700     R  	mov a,_Display_Task_2[1]
 190  0194  0800     E  	sbc a,high offset _gu8v_DisplayBuf[7]
 190  0195  3B0A        	snz cz
 190  0196  2800     R  	jmp _L40
 197  0197              #line 197 "D:\HF\MDST\Code\BS66F360C_CTOUCH_V512_HF-SC10B-20250630\BS66F360C_CTOUCH_V512_HF-SC10B\BS66F360C\Source\Display.c"
 197  0197  0F8F        	mov a,143
 197  0198              	fcall _SendCommand
 197  019F  0003        	ret
 197  01A0              _Display_Task endp
 197  01A0              #line 197 "D:\HF\MDST\Code\BS66F360C_CTOUCH_V512_HF-SC10B-20250630\BS66F360C_CTOUCH_V512_HF-SC10B\BS66F360C\Source\Display.c"
 197  01A0              #pragma debug scope 1 1
 197  01A0              public _R_NumTable
 197  0000              @crom	.section 'crom'
  38  0000              #line 38 "D:\HF\MDST\Code\BS66F360C_CTOUCH_V512_HF-SC10B-20250630\BS66F360C_CTOUCH_V512_HF-SC10B\BS66F360C\Source\Display.c"
  38  0000              @crom	.section	'crom'
  38  0000              _R_NumTable:
  38  0000              #pragma debug array 43 8 10 1
  38  0000              #pragma debug array 43 8 10 1
  38  0000              #pragma debug variable 43 1 _R_NumTable "R_NumTable"
  38  0000              	db 63
  38  0001              	db 6
  38  0001              	db 91
  38  0002              	db 79
  38  0002              	db 102
  38  0003              	db 109
  38  0003              	db 125
  38  0004              	db 7
  38  0004              	db 127
  38  0005              	db 111
  38  0005              
  38  0005              ; output external variables
  38  0005              extern _gu8v_JiaoTiMode:byte
  38  0005              extern _gu8v_AbNumDisCurrentValue:byte
  38  0005              extern _WorkModeFlag:byte
  38  0005              extern _WorkFlag6:byte
文件：Display.c    编译器版本 HGASM 0202 页次10

  38  0005              extern _gu8v_PressureMode:byte
  38  0005              extern _gu8v_PreKeyDownDisTime:byte
  38  0005              extern _TimeFlag1:byte
  38  0005              extern _gu8v_CalModeIndex:byte
  38  0005              extern _WorkFlag4:byte
  38  0005              extern _WorkFlag5:byte
  38  0005              extern _gu8v_WorkMode:byte
  38  0005              extern _gu8v_DisplayBuf:byte
  38  0005              extern _builtin_holtek_udivmodqi4_2:byte
  38  0005              extern _builtin_holtek_udivmodqi4:near
  38  0005              extern _InitIoPort:near
  38  0005              extern _SendCommand:near
  38  0005              extern _SendByte:near
  38  0005              
  38  0005              ; 
  38  0005              ; Generated by holtek-gcc v3.19, Thu Jul 10 20:20:32 2025
  38  0005              ; Rebuild 718
  38  0005              ; end of file


        0 Errors, 0