文件：Display.c    编译器版本 HGASM 0202 页次1


   1  0000              ; Generated by holtek-gcc v3.19, Mon Jan 12 15:28:06 2026
   2  0000              ; 
   3  0000              ; Configuration:
   4  0000              ;       with long instruction
   5  0000              ;       Multi-ROM, Multi-RAM
   6  0000              ;       bits_per_rom_unit:16
   7  0000              ;       with mp1
   8  0000              ;       with tbhp, address(0x9)
   9  0000              ;          Use tabrd-const
  10  0000              ;       
  11  0000              ; SFR address of long-instruction arch:
  12  0000              ;    mp0 = -1,1,0
  13  0000              ;    mp1 = 4,3,2
  14  0000              ;    mp2 = 14,13,12
  15  0000              ;    tbp = 9,7,8
  16  0000              ;    acc = 5
  17  0000              ;    pcl = 6
  18  0000              ;    status = 10
  19  0000              ;    bp = 11
  20  0000              ;    intc = 16
  21  0000              ;       
  22  0000              ;       
  23  0000              ; use 'tabrdc' instead of 'tabrd'
  24  0000              ;       
  25  0000              
  26  0000              #pragma translator "holtek-gcc 4.6.4" "3.19" "build 20130711"
  27  0000              ; Rebuild 718
  28  0000              
  29  0000              ir equ [2]
  30  0000              mp equ [3]
  31  0000              sbp equ [4]
  32  0000              acc equ [5]
  33  0000              bp equ [11]
  34  0000              tblp equ [7]
  35  0000              tbhp equ [9]
  36  0000              status equ [10]
  37  0000              c equ [10].0
  38  0000              ac equ [10].1
  39  0000              z equ [10].2
  40  0000              ov equ [10].3
  41  0000              cz equ [10].6
  42  0000              sc equ [10].7
  43  0000              intc equ [16]
  44  0000              
  45  0000              extern ra:byte
  46  0000              extern rb:byte
  47  0000              extern rc:byte
  48  0000              extern rd:byte
  49  0000              extern re:byte
  50  0000              extern rf:byte
  51  0000              extern rg:byte
  52  0000              extern rh:byte
  53  0000              extern _Crom2Prom:near
  54  0000              extern _Crom2PromNext:near
  55  0000              
  56  0000              RAMBANK 0 @BITDATASEC, @BITDATASEC1
  57  0000              @HCCINIT	.section 'data'
  58  0000              @HCCINIT0	.section 'data'
  59  0000              @BITDATASEC	 .section 'data'
文件：Display.ASM  编译器版本 HGASM 0202 页次2

  60  0000              @BITDATASEC1	 .section 'data'
  61  0000              
  62  0000              #pragma debug scope 1 1
  63  0000              	extern __DELAY3:near
  64  0000              	extern __DELAYX3:near
  65  0000              	extern __DELAYX6:near
  66  0000              	extern __DELAYY5:near
  67  0000              	extern __DELAYY3:near
  68  0000              	extern _builtin_holtek_delay_2:byte
  69  0000              public _Dis_SetDisBufferAll
  70  0000              #pragma debug scope 2 1

  43  0000              #line 43 "d:\work\project\bintuo-f73\software\bs66f360c\Source\Display.c"
  43  0000              _Dis_SetDisBufferAll .section 'code'
  43  0000              _Dis_SetDisBufferAll proc
  43  0000  00              local _Dis_SetDisBufferAll_2 db 1 dup(?)	; 0,1
  43  0000  0080     R  	mov _Dis_SetDisBufferAll_2[0],a
  43  0001              #pragma debug variable 8 2 _Dis_SetDisBufferAll_2+0 "gubv_setData"
  43  0001  0F08        	mov a,8
  43  0002  0080     E  	mov ra,a
  45  0003              #line 45 "d:\work\project\bintuo-f73\software\bs66f360c\Source\Display.c"
  45  0003  1F00     E  	clr rb
  45  0004              _L3:
  47  0004              #line 47 "d:\work\project\bintuo-f73\software\bs66f360c\Source\Display.c"
  47  0004  0F00     E  	mov a,low offset _gu8v_DisplayBuf
  47  0005  0300     E  	add a,rb
  47  0006  0083        	mov mp,a
  47  0007  0F00     E  	mov a,high offset _gu8v_DisplayBuf
  47  0008  1F04        	clr sbp
  47  0009  1384        	adcm a,sbp
  47  000A  0700     R  	mov a,_Dis_SetDisBufferAll_2[0]
  47  000B  0082        	mov ir,a
  45  000C              #line 45 "d:\work\project\bintuo-f73\software\bs66f360c\Source\Display.c"
  45  000C  1480     E  	inc rb
  45  000D  1780     E  	sdz ra
  45  000E  2800     R  	jmp _L3
  45  000F  0003        	ret
  45  0010              _Dis_SetDisBufferAll endp
  45  0010              #line 45 "d:\work\project\bintuo-f73\software\bs66f360c\Source\Display.c"
  45  0010              #pragma debug scope 1 1
  45  0010              public _Display_Refresh_To_TM1652
  45  0010              #pragma debug scope 3 1
  53  0010              #line 53 "d:\work\project\bintuo-f73\software\bs66f360c\Source\Display.c"
  53  0000              _Display_Refresh_To_TM1652 .section 'code'
  53  0000              _Display_Refresh_To_TM1652 proc
  55  0000              #line 55 "d:\work\project\bintuo-f73\software\bs66f360c\Source\Display.c"
  55  0000  0700     E  	mov a,_gu8v_DisplayBuf[2]
  55  0001  0080     E  	mov _drv_tm1652_setdigit_2[0],a
  55  0002  0F00        	mov a,0
  55  0003              	fcall _drv_tm1652_setdigit
  58  000A              #line 58 "d:\work\project\bintuo-f73\software\bs66f360c\Source\Display.c"
  58  000A  0700     E  	mov a,_gu8v_DisplayBuf[3]
  58  000B  0080     E  	mov _drv_tm1652_setdigit_2[0],a
  58  000C  0F01        	mov a,1
  58  000D              	fcall _drv_tm1652_setdigit
  60  0014              #line 60 "d:\work\project\bintuo-f73\software\bs66f360c\Source\Display.c"
  60  0014  0700     E  	mov a,_gu8v_DisplayBuf[4]
  60  0015  0080     E  	mov _drv_tm1652_setdigit_2[0],a
  60  0016  0F03        	mov a,3
  60  0017              	fcall _drv_tm1652_setdigit
文件：Display.c    编译器版本 HGASM 0202 页次3

  61  001E              #line 61 "d:\work\project\bintuo-f73\software\bs66f360c\Source\Display.c"
  61  001E  0700     E  	mov a,_gu8v_DisplayBuf[5]
  61  001F  0080     E  	mov _drv_tm1652_setdigit_2[0],a
  61  0020  0F04        	mov a,4
  61  0021              	fcall _drv_tm1652_setdigit
  61  0028  0003        	ret
  61  0029              _Display_Refresh_To_TM1652 endp
  61  0029              #line 61 "d:\work\project\bintuo-f73\software\bs66f360c\Source\Display.c"
  61  0029              #pragma debug scope 1 1
  61  0029              public _Display_Task
  61  0029              #pragma debug scope 4 1
  66  0029              #line 66 "d:\work\project\bintuo-f73\software\bs66f360c\Source\Display.c"
  66  0000              _Display_Task .section 'code'
  66  0000              _Display_Task proc
  66  0000  00              local _Display_Task_2 db 1 dup(?)	; 0,1
  71  0001              #line 71 "d:\work\project\bintuo-f73\software\bs66f360c\Source\Display.c"
  71  0000  0F00        	mov a,0
  71  0001              	fcall _Dis_SetDisBufferAll
  72  0008              #line 72 "d:\work\project\bintuo-f73\software\bs66f360c\Source\Display.c"
  72  0008  0700     E  	mov a,_gu8v_WorkMode[0]
  72  0009  0080     R  	mov _Display_Task_2[0],a
  72  000A  0700     R  	mov a,_Display_Task_2[0]
  72  000B  0A01        	sub a,1
  72  000C  3D0A        	sz z
  72  000D  2800     R  	jmp _L66
  72  000E  0A01        	sub a,(2)-(1)
  72  000F  3D0A        	sz z
  72  0010  2800     R  	jmp _L9
  72  0011              #line 72 "d:\work\project\bintuo-f73\software\bs66f360c\Source\Display.c"
  72  0011  0700     R  	mov a,_Display_Task_2[0]
  72  0012  0A03        	sub a,3
  72  0013  390A        	snz z
  72  0014  2800     R  	jmp _L7
  72  0015  2800     R  	jmp _L69
  72  0016              _L9:
  78  0016              #line 78 "d:\work\project\bintuo-f73\software\bs66f360c\Source\Display.c"
  78  0016  0F30        	mov a,48
  78  0017  0580     E  	orm a,_gu8v_DisplayBuf[3]
  79  0018              #line 79 "d:\work\project\bintuo-f73\software\bs66f360c\Source\Display.c"
  79  0018  2800     R  	jmp _L7
  79  0019              _L69:
  81  0019              #line 81 "d:\work\project\bintuo-f73\software\bs66f360c\Source\Display.c"
  81  0019  3800     E  	snz _WorkFlag5[0].1
  81  001A  2800     R  	jmp _L11
  83  001B              #line 83 "d:\work\project\bintuo-f73\software\bs66f360c\Source\Display.c"
  83  001B  3800     E  	snz _WorkFlag4[0].3
  83  001C  2800     R  	jmp _L12
  85  001D              #line 85 "d:\work\project\bintuo-f73\software\bs66f360c\Source\Display.c"
  85  001D  3000     E  	set _gu8v_DisplayBuf[5].1
  86  001E              #line 86 "d:\work\project\bintuo-f73\software\bs66f360c\Source\Display.c"
  86  001E  0700     E  	mov a,_gu8v_CalModeIndex[0]
  86  001F  0080     R  	mov _Display_Task_2[0],a
  86  0020  0700     R  	mov a,_Display_Task_2[0]
  86  0021  0A00        	sub a,0
  86  0022  3D0A        	sz z
  86  0023  2800     R  	jmp _L14
  86  0024  0A01        	sub a,(1)-(0)
  86  0025  3D0A        	sz z
  86  0026  2800     R  	jmp _L15
  86  0027  0700     R  	mov a,_Display_Task_2[0]
文件：Display.c    编译器版本 HGASM 0202 页次4

  86  0028  0A02        	sub a,2
  86  0029  3D0A        	sz z
  86  002A  2800     R  	jmp _L16
  86  002B  0700     R  	mov a,_Display_Task_2[0]
  86  002C  0A03        	sub a,3
  86  002D  390A        	snz z
  86  002E  2800     R  	jmp _L64
 108  002F              #line 108 "d:\work\project\bintuo-f73\software\bs66f360c\Source\Display.c"
 108  002F  0F5C        	mov a,92
 108  0030  0080     E  	mov _gu8v_DisplayBuf[1],a
 109  0031              #line 109 "d:\work\project\bintuo-f73\software\bs66f360c\Source\Display.c"
 109  0031  0F70        	mov a,112
 109  0032  0080     E  	mov _gu8v_DisplayBuf[2],a
 110  0033              #line 110 "d:\work\project\bintuo-f73\software\bs66f360c\Source\Display.c"
 110  0033  2800     R  	jmp _L7
 110  0034              _L14:
  89  0034              #line 89 "d:\work\project\bintuo-f73\software\bs66f360c\Source\Display.c"
  89  0034  0F39        	mov a,57
  89  0035  0080     E  	mov _gu8v_DisplayBuf[0],a
  90  0036              #line 90 "d:\work\project\bintuo-f73\software\bs66f360c\Source\Display.c"
  90  0036  0F77        	mov a,119
  90  0037  0080     E  	mov _gu8v_DisplayBuf[1],a
  91  0038              #line 91 "d:\work\project\bintuo-f73\software\bs66f360c\Source\Display.c"
  91  0038  0F3F        	mov a,63
  91  0039  0080     E  	mov _gu8v_DisplayBuf[2],a
  92  003A              #line 92 "d:\work\project\bintuo-f73\software\bs66f360c\Source\Display.c"
  92  003A  3C00     E  	sz _WorkFlag4[0].1
  92  003B  2800     R  	jmp _L7
  94  003C              #line 94 "d:\work\project\bintuo-f73\software\bs66f360c\Source\Display.c"
  94  003C  0F01        	mov a,1
  94  003D  0080     E  	mov _gu8v_CalModeIndex[0],a
  94  003E  2800     R  	jmp _L7
  94  003F              _L15:
  98  003F              #line 98 "d:\work\project\bintuo-f73\software\bs66f360c\Source\Display.c"
  98  003F  0F39        	mov a,57
  98  0040  0080     E  	mov _gu8v_DisplayBuf[0],a
  99  0041              #line 99 "d:\work\project\bintuo-f73\software\bs66f360c\Source\Display.c"
  99  0041  0F77        	mov a,119
  99  0042  0080     E  	mov _gu8v_DisplayBuf[1],a
 100  0043              #line 100 "d:\work\project\bintuo-f73\software\bs66f360c\Source\Display.c"
 100  0043  0F06        	mov a,6
 100  0044  0080     E  	mov _gu8v_DisplayBuf[2],a
 101  0045              #line 101 "d:\work\project\bintuo-f73\software\bs66f360c\Source\Display.c"
 101  0045  2800     R  	jmp _L7
 101  0046              _L16:
 103  0046              #line 103 "d:\work\project\bintuo-f73\software\bs66f360c\Source\Display.c"
 103  0046  0F39        	mov a,57
 103  0047  0080     E  	mov _gu8v_DisplayBuf[0],a
 104  0048              #line 104 "d:\work\project\bintuo-f73\software\bs66f360c\Source\Display.c"
 104  0048  0F77        	mov a,119
 104  0049  0080     E  	mov _gu8v_DisplayBuf[1],a
 105  004A              #line 105 "d:\work\project\bintuo-f73\software\bs66f360c\Source\Display.c"
 105  004A  0F5B        	mov a,91
 105  004B  0080     E  	mov _gu8v_DisplayBuf[2],a
 106  004C              #line 106 "d:\work\project\bintuo-f73\software\bs66f360c\Source\Display.c"
 106  004C  2800     R  	jmp _L7
 106  004D              _L64:
 112  004D              #line 112 "d:\work\project\bintuo-f73\software\bs66f360c\Source\Display.c"
 112  004D  3800     E  	snz _TimeFlag1[0].6
 112  004E  2800     R  	jmp _L7
文件：Display.c    编译器版本 HGASM 0202 页次5

 114  004F              #line 114 "d:\work\project\bintuo-f73\software\bs66f360c\Source\Display.c"
 114  004F  0F79        	mov a,121
 114  0050  0080     E  	mov _gu8v_DisplayBuf[0],a
 115  0051              #line 115 "d:\work\project\bintuo-f73\software\bs66f360c\Source\Display.c"
 115  0051  0F50        	mov a,80
 115  0052  0080     E  	mov _gu8v_DisplayBuf[1],a
 116  0053              #line 116 "d:\work\project\bintuo-f73\software\bs66f360c\Source\Display.c"
 116  0053  0F50        	mov a,80
 116  0054  0080     E  	mov _gu8v_DisplayBuf[2],a
 116  0055  2800     R  	jmp _L7
 116  0056              _L12:
 123  0056              #line 123 "d:\work\project\bintuo-f73\software\bs66f360c\Source\Display.c"
 123  0056  3800     E  	snz _TimeFlag1[0].6
 123  0057  2800     R  	jmp _L7
 123  0058              _L66:
 125  0058              #line 125 "d:\work\project\bintuo-f73\software\bs66f360c\Source\Display.c"
 125  0058  0FFF        	mov a,255
 125  0059              	fcall _Dis_SetDisBufferAll
 125  0060  2800     R  	jmp _L7
 125  0061              _L11:
 125  0061              #pragma debug scope 5 4
 125  0061              ;begin block, line: 125.-1
 132  0061              #line 132 "d:\work\project\bintuo-f73\software\bs66f360c\Source\Display.c"
 132  0061  1E00     E  	snz _gu8v_PreKeyDownDisTime[0]
 132  0062  2800     R  	jmp _L20
 134  0063              #line 134 "d:\work\project\bintuo-f73\software\bs66f360c\Source\Display.c"
 134  0063  3C00     E  	sz _TimeFlag1[0].6
 134  0064  2800     R  	jmp _L21
 134  0065              _L20:
 166  0065              #line 166 "d:\work\project\bintuo-f73\software\bs66f360c\Source\Display.c"
 166  0065  0F04        	mov a,4
 166  0066  0200     E  	sub a,_gu8v_PressureMode[0]
 166  0067  3C0A        	sz c
 166  0068  2800     R  	jmp _L23
 167  0069              #line 167 "d:\work\project\bintuo-f73\software\bs66f360c\Source\Display.c"
 167  0069  0F04        	mov a,4
 167  006A  0080     E  	mov _gu8v_PressureMode[0],a
 167  006B              _L23:
 168  006B              #line 168 "d:\work\project\bintuo-f73\software\bs66f360c\Source\Display.c"
 168  006B  1400     E  	inca _gu8v_PressureMode[0]
 168  006C  0080     E  	mov ra,a
 170  006D              #line 170 "d:\work\project\bintuo-f73\software\bs66f360c\Source\Display.c"
 170  006D  0F00     R  	mov a,low offset _R_NumTable
 170  006E  0300     E  	add a,ra
 170  006F  0083        	mov mp,a
 170  0070  0F00     R  	mov a,high offset _R_NumTable
 170  0071  1F04        	clr sbp
 170  0072  1384        	adcm a,sbp
 170  0073              	fcall _Crom2Prom
 170  007A  0080     E  	mov ra,a
 170  007B  0700     E  	mov a,ra
 170  007C  0080     E  	mov _gu8v_DisplayBuf[0],a
 171  007D              #line 171 "d:\work\project\bintuo-f73\software\bs66f360c\Source\Display.c"
 171  007D  0700     E  	mov a,ra
 171  007E  0080     E  	mov _gu8v_DisplayBuf[1],a
 172  007F              #line 172 "d:\work\project\bintuo-f73\software\bs66f360c\Source\Display.c"
 172  007F  0700     E  	mov a,ra
 172  0080  0080     E  	mov _gu8v_DisplayBuf[2],a
 172  0081              _L21:
 205  0081              #line 205 "d:\work\project\bintuo-f73\software\bs66f360c\Source\Display.c"
文件：Display.c    编译器版本 HGASM 0202 页次6

 205  0081  3800     E  	snz _WorkModeFlag[0].0
 205  0082  2800     R  	jmp _L24
 205  0083  3000     E  	set _gu8v_DisplayBuf[5].4
 205  0084              _L24:
 206  0084              #line 206 "d:\work\project\bintuo-f73\software\bs66f360c\Source\Display.c"
 206  0084  3800     E  	snz _WorkModeFlag[0].1
 206  0085  2800     R  	jmp _L25
 206  0086  3000     E  	set _gu8v_DisplayBuf[4].5
 206  0087              _L25:
 207  0087              #line 207 "d:\work\project\bintuo-f73\software\bs66f360c\Source\Display.c"
 207  0087  3800     E  	snz _WorkModeFlag[0].2
 207  0088  2800     R  	jmp _L26
 207  0089  3000     E  	set _gu8v_DisplayBuf[5].5
 207  008A              _L26:
 208  008A              #line 208 "d:\work\project\bintuo-f73\software\bs66f360c\Source\Display.c"
 208  008A  3800     E  	snz _WorkModeFlag[0].3
 208  008B  2800     R  	jmp _L27
 208  008C  3000     E  	set _gu8v_DisplayBuf[5].6
 208  008D              _L27:
 209  008D              #line 209 "d:\work\project\bintuo-f73\software\bs66f360c\Source\Display.c"
 209  008D  3800     E  	snz _WorkModeFlag[0].4
 209  008E  2800     R  	jmp _L28
 209  008F  3000     E  	set _gu8v_DisplayBuf[4].4
 209  0090              _L28:
 211  0090              #line 211 "d:\work\project\bintuo-f73\software\bs66f360c\Source\Display.c"
 211  0090  3800     E  	snz _WorkFlag5[0].3
 211  0091  2800     R  	jmp _L29
 211  0092  3000     E  	set _gu8v_DisplayBuf[4].0
 211  0093              _L29:
 212  0093              #line 212 "d:\work\project\bintuo-f73\software\bs66f360c\Source\Display.c"
 212  0093  3800     E  	snz _WorkFlag5[0].4
 212  0094  2800     R  	jmp _L30
 212  0095  3000     E  	set _gu8v_DisplayBuf[4].1
 212  0096              _L30:
 224  0096              #line 224 "d:\work\project\bintuo-f73\software\bs66f360c\Source\Display.c"
 224  0096  0F06        	mov a,6
 224  0097  0580     E  	orm a,_gu8v_DisplayBuf[3]
 225  0098              #line 225 "d:\work\project\bintuo-f73\software\bs66f360c\Source\Display.c"
 225  0098  0F30        	mov a,48
 225  0099  0580     E  	orm a,_gu8v_DisplayBuf[3]
 227  009A              #line 227 "d:\work\project\bintuo-f73\software\bs66f360c\Source\Display.c"
 227  009A  3800     E  	snz _WorkFlag5[0].2
 227  009B  2800     R  	jmp _L31
 228  009C              #line 228 "d:\work\project\bintuo-f73\software\bs66f360c\Source\Display.c"
 228  009C  3000     E  	set _gu8v_DisplayBuf[5].0
 228  009D  2800     R  	jmp _L7
 228  009E              _L31:
 232  009E              #line 232 "d:\work\project\bintuo-f73\software\bs66f360c\Source\Display.c"
 232  009E  3000     E  	set _gu8v_DisplayBuf[5].1
 233  009F              #line 233 "d:\work\project\bintuo-f73\software\bs66f360c\Source\Display.c"
 233  009F  0700     E  	mov a,_gu8v_JiaoTiMode[0]
 233  00A0  0080     R  	mov _Display_Task_2[0],a
 233  00A1  0700     R  	mov a,_Display_Task_2[0]
 233  00A2  0A01        	sub a,1
 233  00A3  3D0A        	sz z
 233  00A4  2800     R  	jmp _L33
 233  00A5  0A01        	sub a,(2)-(1)
 233  00A6  3D0A        	sz z
 233  00A7  2800     R  	jmp _L7
 242  00A8              #line 242 "d:\work\project\bintuo-f73\software\bs66f360c\Source\Display.c"
文件：Display.c    编译器版本 HGASM 0202 页次7

 242  00A8  3000     E  	set _gu8v_DisplayBuf[5].2
 243  00A9              #line 243 "d:\work\project\bintuo-f73\software\bs66f360c\Source\Display.c"
 243  00A9  2800     R  	jmp _L7
 243  00AA              _L33:
 239  00AA              #line 239 "d:\work\project\bintuo-f73\software\bs66f360c\Source\Display.c"
 239  00AA  3000     E  	set _gu8v_DisplayBuf[5].3
 239  00AB              _L7:
 239  00AB              #pragma debug scope 4 1
 269  00AB              #line 269 "d:\work\project\bintuo-f73\software\bs66f360c\Source\Display.c"
 269  00AB              	fcall _Display_Refresh_To_TM1652
 269  00B2  0003        	ret
 269  00B3              _Display_Task endp
 269  00B3              #line 269 "d:\work\project\bintuo-f73\software\bs66f360c\Source\Display.c"
 269  00B3              #pragma debug scope 1 1
 269  00B3              public _R_NumTable
 269  0000              @crom	.section 'crom'
  40  0000              #line 40 "d:\work\project\bintuo-f73\software\bs66f360c\Source\Display.c"
  40  0000              @crom	.section	'crom'
  40  0000              _R_NumTable:
  40  0000              #pragma debug array 42 8 10 1
  40  0000              #pragma debug array 42 8 10 1
  40  0000              #pragma debug variable 42 1 _R_NumTable "R_NumTable"
  40  0000              	db 63
  40  0001              	db 6
  40  0001              	db 91
  40  0002              	db 79
  40  0002              	db 102
  40  0003              	db 109
  40  0003              	db 125
  40  0004              	db 7
  40  0004              	db 127
  40  0005              	db 111
  40  0005              
  40  0005              ; output external variables
  40  0005              extern _gu8v_JiaoTiMode:byte
  40  0005              extern _WorkModeFlag:byte
  40  0005              extern _gu8v_PressureMode:byte
  40  0005              extern _gu8v_PreKeyDownDisTime:byte
  40  0005              extern _TimeFlag1:byte
  40  0005              extern _gu8v_CalModeIndex:byte
  40  0005              extern _WorkFlag4:byte
  40  0005              extern _WorkFlag5:byte
  40  0005              extern _gu8v_WorkMode:byte
  40  0005              extern _gu8v_DisplayBuf:byte
  40  0005              extern _drv_tm1652_setdigit_2:byte
  40  0005              extern _drv_tm1652_setdigit:near
  40  0005              
  40  0005              ; 
  40  0005              ; Generated by holtek-gcc v3.19, Mon Jan 12 15:28:06 2026
  40  0005              ; Rebuild 718
  40  0005              ; end of file


        0 Errors, 0