文件：drv_iouart_tx.c 编译器版本 HGASM 0202 页次1


   1  0000              ; Generated by holtek-gcc v3.19, Mon Jan 12 15:28:09 2026
   2  0000              ; 
   3  0000              ; Configuration:
   4  0000              ;       with long instruction
   5  0000              ;       Multi-ROM, Multi-RAM
   6  0000              ;       bits_per_rom_unit:16
   7  0000              ;       with mp1
   8  0000              ;       with tbhp, address(0x9)
   9  0000              ;          Use tabrd-const
  10  0000              ;       
  11  0000              ; SFR address of long-instruction arch:
  12  0000              ;    mp0 = -1,1,0
  13  0000              ;    mp1 = 4,3,2
  14  0000              ;    mp2 = 14,13,12
  15  0000              ;    tbp = 9,7,8
  16  0000              ;    acc = 5
  17  0000              ;    pcl = 6
  18  0000              ;    status = 10
  19  0000              ;    bp = 11
  20  0000              ;    intc = 16
  21  0000              ;       
  22  0000              ;       
  23  0000              ; use 'tabrdc' instead of 'tabrd'
  24  0000              ;       
  25  0000              
  26  0000              #pragma translator "holtek-gcc 4.6.4" "3.19" "build 20130711"
  27  0000              ; Rebuild 718
  28  0000              
  29  0000              ir equ [2]
  30  0000              mp equ [3]
  31  0000              sbp equ [4]
  32  0000              acc equ [5]
  33  0000              bp equ [11]
  34  0000              tblp equ [7]
  35  0000              tbhp equ [9]
  36  0000              status equ [10]
  37  0000              c equ [10].0
  38  0000              ac equ [10].1
  39  0000              z equ [10].2
  40  0000              ov equ [10].3
  41  0000              cz equ [10].6
  42  0000              sc equ [10].7
  43  0000              intc equ [16]
  44  0000              
  45  0000              extern ra:byte
  46  0000              extern rb:byte
  47  0000              extern rc:byte
  48  0000              extern rd:byte
  49  0000              extern re:byte
  50  0000              extern rf:byte
  51  0000              extern rg:byte
  52  0000              extern rh:byte
  53  0000              extern _Crom2Prom:near
  54  0000              extern _Crom2PromNext:near
  55  0000              
  56  0000              RAMBANK 0 @BITDATASEC, @BITDATASEC1
  57  0000              @HCCINIT	.section 'data'
  58  0000              @HCCINIT0	.section 'data'
  59  0000              @BITDATASEC	 .section 'data'
文件：drv_iouart_tx.ASM 编译器版本 HGASM 0202 页次2

  60  0000              @BITDATASEC1	 .section 'data'
  61  0000              
  62  0000              #pragma debug scope 1 1
  63  0000              	extern __DELAY3:near
  64  0000              	extern __DELAYX3:near
  65  0000              	extern __DELAYX6:near
  66  0000              	extern __DELAYY5:near
  67  0000              	extern __DELAYY3:near
  68  0000              	extern _builtin_holtek_delay_2:byte
  69  0000              ___pac equ [21]
  70  0000              public _IOUART_Init
  71  0000              #pragma debug scope 2 1

  29  0000              #line 29 "D:\Work\Project\bintuo-F73\Software\BS66F360C\Source\ming\drv_iouart_tx.c"
  29  0000              _IOUART_Init .section 'code'
  29  0000              _IOUART_Init proc
  31  0000              #line 31 "D:\Work\Project\bintuo-F73\Software\BS66F360C\Source\ming\drv_iouart_tx.c"
  31  0000  1F00     R  	clr _tx_head[0]
  31  0001  1F00     R  	clr _tx_head[1]
  32  0002              #line 32 "D:\Work\Project\bintuo-F73\Software\BS66F360C\Source\ming\drv_iouart_tx.c"
  32  0002  1F00     R  	clr _tx_tail[0]
  32  0003  1F00     R  	clr _tx_tail[1]
  33  0004              #line 33 "D:\Work\Project\bintuo-F73\Software\BS66F360C\Source\ming\drv_iouart_tx.c"
  33  0004  1F00     R  	clr _tx_busy[0]
  34  0005              #line 34 "D:\Work\Project\bintuo-F73\Software\BS66F360C\Source\ming\drv_iouart_tx.c"
  34  0005  1F00     R  	clr _tx_state[0]
  34  0006  1F00     R  	clr _tx_state[1]
  41  0007              #line 41 "D:\Work\Project\bintuo-F73\Software\BS66F360C\Source\ming\drv_iouart_tx.c"
  41  0007  3515        	clr [21].2
  41  0008  0003        	ret
  41  0009              _IOUART_Init endp
  41  0009              #line 41 "D:\Work\Project\bintuo-F73\Software\BS66F360C\Source\ming\drv_iouart_tx.c"
  41  0009              #pragma debug scope 1 1
  41  0009              public _IOUART_SendByte
  41  0009              #pragma debug scope 3 1
  86  0009              #line 86 "D:\Work\Project\bintuo-F73\Software\BS66F360C\Source\ming\drv_iouart_tx.c"
  86  0000              _IOUART_SendByte .section 'code'
  86  0000              _IOUART_SendByte proc
  86  0000  00              local _IOUART_SendByte_2 db 1 dup(?)	; 0,1
  86  0000  0080     R  	mov _IOUART_SendByte_2[0],a
  86  0001              #pragma debug variable 8 3 _IOUART_SendByte_2+0 "data"
  86  0001              #pragma debug scope 4 3
  86  0001              ;begin block, line: 86.-1
  86  0001              #pragma debug scope 5 4
  86  0001              ;begin block, line: 86.-1
  60  0001              #line 60 "D:\Work\Project\bintuo-F73\Software\BS66F360C\Source\ming\drv_iouart_tx.c"
  60  0001  0700     R  	mov a,_tx_head[0]
  60  0002  0080     E  	mov rd,a
  60  0003  0700     R  	mov a,_tx_head[1]
  60  0004  0080     E  	mov re,a
  60  0005  0F01        	mov a,1
  60  0006  0300     E  	add a,rd
  60  0007  0080     E  	mov rb,a
  60  0008  0F00        	mov a,0
  60  0009  1300     E  	adc a,re
  60  000A  0080     E  	mov rc,a
  60  000B  1F00     E  	clr _builtin_holtek_udivmodhi4_2[6]
  60  000C  0700     E  	mov a,rb  
  60  000D  0080     E  	mov _builtin_holtek_udivmodhi4_2[0],a  
  60  000E  0700     E  	mov a,rc  
文件：drv_iouart_tx.c 编译器版本 HGASM 0202 页次3

  60  000F  0080     E  	mov _builtin_holtek_udivmodhi4_2[1],a
  60  0010  0F18        	mov a,24  
  60  0011  0080     E  	mov _builtin_holtek_udivmodhi4_2[2],a  
  60  0012  1F00     E  	clr _builtin_holtek_udivmodhi4_2[3]
  60  0013              	fcall _builtin_holtek_udivmodhi4
  60  001A  0700     E  	mov a,_builtin_holtek_udivmodhi4_2[4]  
  60  001B  0080     E  	mov rb,a  
  60  001C  0700     E  	mov a,_builtin_holtek_udivmodhi4_2[5]  
  60  001D  0080     E  	mov rc,a
  60  001E              #pragma debug scope 4 3
  60  001E              #pragma debug scope 3 1
  88  001E              #line 88 "D:\Work\Project\bintuo-F73\Software\BS66F360C\Source\ming\drv_iouart_tx.c"
  88  001E  0700     E  	mov a,rb
  88  001F  0200     R  	sub a,_tx_tail[0]
  88  0020  0700     E  	mov a,rc
  88  0021  1200     R  	sbc a,_tx_tail[1]
  88  0022  3F0A        	sz cz
  88  0023  2800     R  	jmp _L4
  88  0024              #pragma debug scope 6 3
  88  0024              ;begin block, line: 88.-1
  88  0024              #pragma debug scope 7 6
  88  0024              ;begin block, line: 88.-1
  93  0024              #line 93 "D:\Work\Project\bintuo-F73\Software\BS66F360C\Source\ming\drv_iouart_tx.c"
  93  0024  0F00     R  	mov a,low offset _tx_buffer
  93  0025  0300     E  	add a,rd
  93  0026  0083        	mov mp,a
  93  0027  0F00     R  	mov a,high offset _tx_buffer
  93  0028  1300     E  	adc a,re
  93  0029  0084        	mov sbp,a
  93  002A  0700     R  	mov a,_IOUART_SendByte_2[0]
  93  002B  0082        	mov ir,a
  94  002C              #line 94 "D:\Work\Project\bintuo-F73\Software\BS66F360C\Source\ming\drv_iouart_tx.c"
  94  002C  0700     E  	mov a,rb
  94  002D  0080     R  	mov _tx_head[0],a
  94  002E  0700     E  	mov a,rc
  94  002F  0080     R  	mov _tx_head[1],a
  94  0030  0F01        	mov a,1
  94  0031  0080     E  	mov ra,a
  94  0032  2800     R  	jmp _L3
  94  0033              _L4:
  94  0033              #pragma debug scope 6 3
  94  0033              #pragma debug scope 3 1
  89  0033              #line 89 "D:\Work\Project\bintuo-F73\Software\BS66F360C\Source\ming\drv_iouart_tx.c"
  89  0033  1F00     E  	clr ra
  89  0034              _L3:
 106  0034              #line 106 "D:\Work\Project\bintuo-F73\Software\BS66F360C\Source\ming\drv_iouart_tx.c"
 106  0034  0700     E  	mov a,ra
 106  0035  0003        	ret
 106  0036              _IOUART_SendByte endp
 106  0036              #line 106 "D:\Work\Project\bintuo-F73\Software\BS66F360C\Source\ming\drv_iouart_tx.c"
 106  0036              #pragma debug scope 1 1
 106  0036              public _iouart_startscan
 106  0036              #pragma debug scope 8 1
 109  0036              #line 109 "D:\Work\Project\bintuo-F73\Software\BS66F360C\Source\ming\drv_iouart_tx.c"
 109  0000              _iouart_startscan .section 'code'
 109  0000              _iouart_startscan proc
 110  0000              #line 110 "D:\Work\Project\bintuo-F73\Software\BS66F360C\Source\ming\drv_iouart_tx.c"
 110  0000  1080     R  	sz _tx_busy[0]
 110  0001  2800     R  	jmp _L6
 110  0002              #pragma debug scope 9 8
文件：drv_iouart_tx.c 编译器版本 HGASM 0202 页次4

 110  0002              ;begin block, line: 110.-1
 110  0002              #pragma debug scope 10 9
 110  0002              ;begin block, line: 110.-1
 110  0002              #pragma debug scope 11 10
 110  0002              ;begin block, line: 110.-1
 110  0002              #pragma debug scope 12 11
 110  0002              ;begin block, line: 110.-1
  51  0002              #line 51 "D:\Work\Project\bintuo-F73\Software\BS66F360C\Source\ming\drv_iouart_tx.c"
  51  0002  0700     R  	mov a,_tx_tail[0]
  51  0003  0080     E  	mov rb,a
  51  0004  0700     R  	mov a,_tx_tail[1]
  51  0005  0080     E  	mov rc,a
  51  0006              #pragma debug scope 11 10
  51  0006              #pragma debug scope 10 9
  70  0006              #line 70 "D:\Work\Project\bintuo-F73\Software\BS66F360C\Source\ming\drv_iouart_tx.c"
  70  0006  0700     R  	mov a,_tx_head[0]
  70  0007  0200     E  	sub a,rb
  70  0008  0700     R  	mov a,_tx_head[1]
  70  0009  1200     E  	sbc a,rc
  70  000A  3F0A        	sz cz
  70  000B  2800     R  	jmp _L6
  74  000C              #line 74 "D:\Work\Project\bintuo-F73\Software\BS66F360C\Source\ming\drv_iouart_tx.c"
  74  000C  0F00     R  	mov a,low offset _tx_buffer
  74  000D  0300     E  	add a,rb
  74  000E  0083        	mov mp,a
  74  000F  0F00     R  	mov a,high offset _tx_buffer
  74  0010  1300     E  	adc a,rc
  74  0011  0084        	mov sbp,a
  74  0012              	fcall _Crom2Prom
  74  0019  0080     R  	mov _tx_data[0],a
  75  001A              #line 75 "D:\Work\Project\bintuo-F73\Software\BS66F360C\Source\ming\drv_iouart_tx.c"
  75  001A  1480     E  	inc rb
  75  001B  3D0A        	sz z
  75  001C  1480     E  	inc rc
  75  001D  1F00     E  	clr _builtin_holtek_udivmodhi4_2[6]
  75  001E  0700     E  	mov a,rb  
  75  001F  0080     E  	mov _builtin_holtek_udivmodhi4_2[0],a  
  75  0020  0700     E  	mov a,rc  
  75  0021  0080     E  	mov _builtin_holtek_udivmodhi4_2[1],a
  75  0022  0F18        	mov a,24  
  75  0023  0080     E  	mov _builtin_holtek_udivmodhi4_2[2],a  
  75  0024  1F00     E  	clr _builtin_holtek_udivmodhi4_2[3]
  75  0025              	fcall _builtin_holtek_udivmodhi4
  75  002C  0700     E  	mov a,_builtin_holtek_udivmodhi4_2[4]  
  75  002D  0080     R  	mov _tx_tail[0],a  
  75  002E  0700     E  	mov a,_builtin_holtek_udivmodhi4_2[5]  
  75  002F  0080     R  	mov _tx_tail[1],a
  75  0030              #pragma debug scope 9 8
  75  0030              #pragma debug scope 8 1
 114  0030              #line 114 "D:\Work\Project\bintuo-F73\Software\BS66F360C\Source\ming\drv_iouart_tx.c"
 114  0030  0F01        	mov a,1
 114  0031  0080     R  	mov _tx_busy[0],a
 115  0032              #line 115 "D:\Work\Project\bintuo-F73\Software\BS66F360C\Source\ming\drv_iouart_tx.c"
 115  0032  0F01        	mov a,1
 115  0033  0080     R  	mov _tx_state[0],a
 115  0034  1F00     R  	clr _tx_state[1]
 115  0035              _L6:
 115  0035  0003        	ret
 115  0036              _iouart_startscan endp
 115  0036              #line 115 "D:\Work\Project\bintuo-F73\Software\BS66F360C\Source\ming\drv_iouart_tx.c"
文件：drv_iouart_tx.c 编译器版本 HGASM 0202 页次5

 115  0036              #pragma debug scope 1 1
 115  0036              public _IOUART_SendString
 115  0036              #pragma debug scope 13 1
 128  0036              #line 128 "D:\Work\Project\bintuo-F73\Software\BS66F360C\Source\ming\drv_iouart_tx.c"
 128  0000              _IOUART_SendString .section 'code'
 128  0000              _IOUART_SendString proc
 128  0000              public _IOUART_SendString_2
 128  0000  0004[           local _IOUART_SendString_2 db 4 dup(?)	; 2,2
            00
            ]
 128  0004              #pragma debug pointer 42 7 13
 128  0004              #pragma debug pointer 42 7 13
 128  0004              #pragma debug variable 42 13 _IOUART_SendString_2+0 "str"
 128  0004              #pragma debug variable 12 13 _IOUART_SendString_2+2 "count"
 129  0004              #line 129 "D:\Work\Project\bintuo-F73\Software\BS66F360C\Source\ming\drv_iouart_tx.c"
 129  0000  1F00     R  	clr _IOUART_SendString_2[2]
 129  0001  1F00     R  	clr _IOUART_SendString_2[3]
 129  0002              _L9:
 131  0002              #line 131 "D:\Work\Project\bintuo-F73\Software\BS66F360C\Source\ming\drv_iouart_tx.c"
 131  0002  0700     R  	mov a,_IOUART_SendString_2[2]
 131  0003  0300     R  	add a,_IOUART_SendString_2[0]
 131  0004  0083        	mov mp,a
 131  0005  0700     R  	mov a,_IOUART_SendString_2[3]
 131  0006  1300     R  	adc a,_IOUART_SendString_2[1]
 131  0007  0084        	mov sbp,a
 131  0008              	fcall _Crom2Prom
 131  000F  0080     E  	mov ra,a
 131  0010  1E00     E  	snz ra
 131  0011  2800     R  	jmp _L13
 132  0012              #line 132 "D:\Work\Project\bintuo-F73\Software\BS66F360C\Source\ming\drv_iouart_tx.c"
 132  0012  0700     E  	mov a,ra
 132  0013              	fcall _IOUART_SendByte
 132  001A  0080     E  	mov ra,a
 132  001B  1E00     E  	snz ra
 132  001C  2800     R  	jmp _L13
 133  001D              #line 133 "D:\Work\Project\bintuo-F73\Software\BS66F360C\Source\ming\drv_iouart_tx.c"
 133  001D  1480     R  	inc _IOUART_SendString_2[2]
 133  001E  3D0A        	sz z
 133  001F  1480     R  	inc _IOUART_SendString_2[3]
 133  0020  2800     R  	jmp _L9
 133  0021              _L13:
 141  0021              #line 141 "D:\Work\Project\bintuo-F73\Software\BS66F360C\Source\ming\drv_iouart_tx.c"
 141  0021  0700     R  	mov a,_IOUART_SendString_2[2]
 141  0022  0080     E  	mov ra,a
 141  0023  0700     R  	mov a,_IOUART_SendString_2[3]
 141  0024  0080     E  	mov rb,a
 141  0025  0003        	ret
 141  0026              _IOUART_SendString endp
 141  0026              #line 141 "D:\Work\Project\bintuo-F73\Software\BS66F360C\Source\ming\drv_iouart_tx.c"
 141  0026              #pragma debug scope 1 1
 141  0026              public _IOUART_SendBuffer
 141  0026              #pragma debug scope 14 1
 150  0026              #line 150 "D:\Work\Project\bintuo-F73\Software\BS66F360C\Source\ming\drv_iouart_tx.c"
 150  0000              _IOUART_SendBuffer .section 'code'
 150  0000              _IOUART_SendBuffer proc
 150  0000              public _IOUART_SendBuffer_2
 150  0000  0006[           local _IOUART_SendBuffer_2 db 6 dup(?)	; 4,2
            00
            ]
 150  0006              #pragma debug pointer 43 8 14
文件：drv_iouart_tx.c 编译器版本 HGASM 0202 页次6

 150  0006              #pragma debug pointer 43 8 14
 150  0006              #pragma debug variable 43 14 _IOUART_SendBuffer_2+0 "data"
 150  0006              #pragma debug variable 12 14 _IOUART_SendBuffer_2+2 "len"
 150  0006              #pragma debug variable 12 14 _IOUART_SendBuffer_2+4 "count"
 151  0006              #line 151 "D:\Work\Project\bintuo-F73\Software\BS66F360C\Source\ming\drv_iouart_tx.c"
 151  0000  1F00     R  	clr _IOUART_SendBuffer_2[4]
 151  0001  1F00     R  	clr _IOUART_SendBuffer_2[5]
 151  0002              _L15:
 154  0002              #line 154 "D:\Work\Project\bintuo-F73\Software\BS66F360C\Source\ming\drv_iouart_tx.c"
 154  0002  0700     R  	mov a,_IOUART_SendBuffer_2[4]
 154  0003  0200     R  	sub a,_IOUART_SendBuffer_2[2]
 154  0004  0700     R  	mov a,_IOUART_SendBuffer_2[5]
 154  0005  1200     R  	sbc a,_IOUART_SendBuffer_2[3]
 154  0006  3F0A        	sz cz
 154  0007  2800     R  	jmp _L19
 155  0008              #line 155 "D:\Work\Project\bintuo-F73\Software\BS66F360C\Source\ming\drv_iouart_tx.c"
 155  0008  0700     R  	mov a,_IOUART_SendBuffer_2[4]
 155  0009  0300     R  	add a,_IOUART_SendBuffer_2[0]
 155  000A  0083        	mov mp,a
 155  000B  0700     R  	mov a,_IOUART_SendBuffer_2[5]
 155  000C  1300     R  	adc a,_IOUART_SendBuffer_2[1]
 155  000D  0084        	mov sbp,a
 155  000E              	fcall _Crom2Prom
 155  0015              	fcall _IOUART_SendByte
 155  001C  0080     E  	mov ra,a
 155  001D  1E00     E  	snz ra
 155  001E  2800     R  	jmp _L19
 156  001F              #line 156 "D:\Work\Project\bintuo-F73\Software\BS66F360C\Source\ming\drv_iouart_tx.c"
 156  001F  1480     R  	inc _IOUART_SendBuffer_2[4]
 156  0020  3D0A        	sz z
 156  0021  1480     R  	inc _IOUART_SendBuffer_2[5]
 156  0022  2800     R  	jmp _L15
 156  0023              _L19:
 163  0023              #line 163 "D:\Work\Project\bintuo-F73\Software\BS66F360C\Source\ming\drv_iouart_tx.c"
 163  0023  0700     R  	mov a,_IOUART_SendBuffer_2[4]
 163  0024  0080     E  	mov ra,a
 163  0025  0700     R  	mov a,_IOUART_SendBuffer_2[5]
 163  0026  0080     E  	mov rb,a
 163  0027  0003        	ret
 163  0028              _IOUART_SendBuffer endp
 163  0028              #line 163 "D:\Work\Project\bintuo-F73\Software\BS66F360C\Source\ming\drv_iouart_tx.c"
 163  0028              #pragma debug scope 1 1
 163  0028              public _IOUART_GetStatus
 163  0028              #pragma debug scope 15 1
 170  0028              #line 170 "D:\Work\Project\bintuo-F73\Software\BS66F360C\Source\ming\drv_iouart_tx.c"
 170  0000              _IOUART_GetStatus .section 'code'
 170  0000              _IOUART_GetStatus proc
 171  0000              #line 171 "D:\Work\Project\bintuo-F73\Software\BS66F360C\Source\ming\drv_iouart_tx.c"
 171  0000  0F00        	mov a,0
 171  0001  0200     R  	sub a,_tx_busy[0]
 171  0002  0080     E  	mov ra,a
 171  0003  0700     R  	mov a,_tx_busy[0]
 171  0004  0580     E  	orm a,ra
 171  0005  1A80     E  	rlc ra
 171  0006  1F00     E  	clr ra
 171  0007  1A80     E  	rlc ra
 172  0008              #line 172 "D:\Work\Project\bintuo-F73\Software\BS66F360C\Source\ming\drv_iouart_tx.c"
 172  0008  1F00     E  	clr rb
 172  0009  3C00     E  	sz ra.7
 172  000A  1F80     E  	set rb
文件：drv_iouart_tx.c 编译器版本 HGASM 0202 页次7

 172  000B  0003        	ret
 172  000C              _IOUART_GetStatus endp
 172  000C              #line 172 "D:\Work\Project\bintuo-F73\Software\BS66F360C\Source\ming\drv_iouart_tx.c"
 172  000C              #pragma debug scope 1 1
 172  000C              ___pa equ [20]
 172  000C              public _IOUART_TimerIRQHandler
 172  000C              #pragma debug scope 16 1
 178  000C              #line 178 "D:\Work\Project\bintuo-F73\Software\BS66F360C\Source\ming\drv_iouart_tx.c"
 178  0000              _IOUART_TimerIRQHandler .section 'code'
 178  0000              _IOUART_TimerIRQHandler proc
 180  0000              #line 180 "D:\Work\Project\bintuo-F73\Software\BS66F360C\Source\ming\drv_iouart_tx.c"
 180  0000  1E00     R  	snz _tx_busy[0]
 180  0001  2800     R  	jmp _L21
 185  0002              #line 185 "D:\Work\Project\bintuo-F73\Software\BS66F360C\Source\ming\drv_iouart_tx.c"
 185  0002  0700     R  	mov a,_tx_state[0]
 185  0003  0500     R  	or a,_tx_state[1]
 185  0004  3D0A        	sz z
 185  0005  2800     R  	jmp _L25
 185  0006  0700     R  	mov a,_tx_state[0]
 185  0007  0C01        	xor a,1
 185  0008  0500     R  	or a,_tx_state[1]
 185  0009  3D0A        	sz z
 185  000A  2800     R  	jmp _L26
 185  000B  0700     R  	mov a,_tx_state[0]
 185  000C  0C02        	xor a,2
 185  000D  0500     R  	or a,_tx_state[1]
 185  000E  3D0A        	sz z
 185  000F  2800     R  	jmp _L27
 185  0010  0700     R  	mov a,_tx_state[0]
 185  0011  0C03        	xor a,3
 185  0012  0500     R  	or a,_tx_state[1]
 185  0013  390A        	snz z
 185  0014  2800     R  	jmp _L30
 220  0015              #line 220 "D:\Work\Project\bintuo-F73\Software\BS66F360C\Source\ming\drv_iouart_tx.c"
 220  0015  3114        	set [20].2
 220  0016  2800     R  	jmp _L30
 220  0017              _L25:
 196  0017              #line 196 "D:\Work\Project\bintuo-F73\Software\BS66F360C\Source\ming\drv_iouart_tx.c"
 196  0017  1F00     R  	clr _tx_busy[0]
 198  0018              #line 198 "D:\Work\Project\bintuo-F73\Software\BS66F360C\Source\ming\drv_iouart_tx.c"
 198  0018  2800     R  	jmp _L21
 198  0019              _L26:
 202  0019              #line 202 "D:\Work\Project\bintuo-F73\Software\BS66F360C\Source\ming\drv_iouart_tx.c"
 202  0019  3514        	clr [20].2
 203  001A              #line 203 "D:\Work\Project\bintuo-F73\Software\BS66F360C\Source\ming\drv_iouart_tx.c"
 203  001A  1F00     R  	clr _tx_bit_index[0]
 204  001B              #line 204 "D:\Work\Project\bintuo-F73\Software\BS66F360C\Source\ming\drv_iouart_tx.c"
 204  001B  0F02        	mov a,2
 204  001C  0080     R  	mov _tx_state[0],a
 204  001D  1F00     R  	clr _tx_state[1]
 205  001E              #line 205 "D:\Work\Project\bintuo-F73\Software\BS66F360C\Source\ming\drv_iouart_tx.c"
 205  001E  2800     R  	jmp _L21
 205  001F              _L27:
 209  001F              #line 209 "D:\Work\Project\bintuo-F73\Software\BS66F360C\Source\ming\drv_iouart_tx.c"
 209  001F  0700     R  	mov a,_tx_data[0]
 209  0020  0080     E  	mov rb,a
 209  0021  1F00     E  	clr rc
 209  0022  1400     R  	inca _tx_bit_index[0]
 209  0023  2800     R  	jmp _LI1
 209  0024              _LI2:
文件：drv_iouart_tx.c 编译器版本 HGASM 0202 页次8

 209  0024  340A        	clr c
 209  0025  3C00     E  	sz rc.7
 209  0026  300A        	set c
 209  0027  1B80     E  	rrc rc
 209  0028  1B80     E  	rrc rb
 209  0029              _LI1:
 209  0029  1785        	sdz acc
 209  002A  2800     R  	jmp _LI2
 209  002B  0F01        	mov a,1
 209  002C  0680     E  	andm a,rb
 209  002D  1F00     E  	clr ra
 209  002E  1080     E  	sz rb
 209  002F  3000     E  	set ra.2
 209  0030  3514        	clr [20].2
 209  0031  0700     E  	mov a,ra
 209  0032  0594        	orm a,[20]
 210  0033              #line 210 "D:\Work\Project\bintuo-F73\Software\BS66F360C\Source\ming\drv_iouart_tx.c"
 210  0033  1400     R  	inca _tx_bit_index[0]
 210  0034  0080     E  	mov ra,a
 210  0035  0700     E  	mov a,ra
 210  0036  0080     R  	mov _tx_bit_index[0],a
 213  0037              #line 213 "D:\Work\Project\bintuo-F73\Software\BS66F360C\Source\ming\drv_iouart_tx.c"
 213  0037  0F07        	mov a,7
 213  0038  0200     E  	sub a,ra
 213  0039  3C0A        	sz c
 213  003A  2800     R  	jmp _L21
 214  003B              #line 214 "D:\Work\Project\bintuo-F73\Software\BS66F360C\Source\ming\drv_iouart_tx.c"
 214  003B  0F03        	mov a,3
 214  003C  0080     R  	mov _tx_state[0],a
 214  003D  1F00     R  	clr _tx_state[1]
 214  003E  2800     R  	jmp _L21
 214  003F              _L30:
 236  003F              #line 236 "D:\Work\Project\bintuo-F73\Software\BS66F360C\Source\ming\drv_iouart_tx.c"
 236  003F  1F00     R  	clr _tx_state[0]
 236  0040  1F00     R  	clr _tx_state[1]
 236  0041              _L21:
 236  0041  0003        	ret
 236  0042              _IOUART_TimerIRQHandler endp
 236  0042              #line 236 "D:\Work\Project\bintuo-F73\Software\BS66F360C\Source\ming\drv_iouart_tx.c"
 236  0042              #pragma debug scope 1 1
 236  0042              public _tx_bit_index
 236  0000              @HCCINIT	.section 'data'
  23  0000              #line 23 "D:\Work\Project\bintuo-F73\Software\BS66F360C\Source\ming\drv_iouart_tx.c"
  23  0000              @HCCINIT_tx_bit_index .section 'data'
  23  0000              _tx_bit_index label byte
  23  0000              #pragma debug variable 8 1 _tx_bit_index "tx_bit_index"
  23  0000              	db 0
  23  0000              @ROMDATA_BASE .section inpage 'code'
  23  0000              	db 0
  23  0001              @HCCINIT_tx_bit_index .section 'data'
  23  0001              public _tx_data
  22  0001              #line 22 "D:\Work\Project\bintuo-F73\Software\BS66F360C\Source\ming\drv_iouart_tx.c"
  22  0000              @HCCINIT_tx_data .section 'data'
  22  0000              _tx_data label byte
  22  0000              #pragma debug variable 8 1 _tx_data "tx_data"
  22  0000              	db 0
  22  0001              @ROMDATA_BASE .section inpage 'code'
  22  0001              	db 0
  22  0001              @HCCINIT_tx_data .section 'data'
  22  0001              public _tx_state
文件：drv_iouart_tx.c 编译器版本 HGASM 0202 页次9

  21  0001              #line 21 "D:\Work\Project\bintuo-F73\Software\BS66F360C\Source\ming\drv_iouart_tx.c"
  21  0000              @HCCINIT_tx_state .section 'data'
  21  0000              _tx_state label byte
  21  0000              #pragma debug variable 12 1 _tx_state "tx_state"
  21  0000              	db 0
  21  0001              @ROMDATA_BASE .section inpage 'code'
  21  0001              	db 0
  21  0001              @HCCINIT_tx_state .section 'data'
  21  0001              	db 0
  21  0002              @ROMDATA_BASE .section inpage 'code'
  21  0002              	db 0
  21  0002              @HCCINIT_tx_state .section 'data'
  21  0002              public _tx_busy
  20  0002              #line 20 "D:\Work\Project\bintuo-F73\Software\BS66F360C\Source\ming\drv_iouart_tx.c"
  20  0000              @HCCINIT_tx_busy .section 'data'
  20  0000              _tx_busy label byte
  20  0000              #pragma debug variable 8 1 _tx_busy "tx_busy"
  20  0000              	db 0
  20  0002              @ROMDATA_BASE .section inpage 'code'
  20  0002              	db 0
  20  0001              @HCCINIT_tx_busy .section 'data'
  18  0001              #line 18 "D:\Work\Project\bintuo-F73\Software\BS66F360C\Source\ming\drv_iouart_tx.c"
  18  0000              @HCCINIT_tx_tail .section 'data'
  18  0000              _tx_tail label byte
  18  0000              #pragma debug variable 12 1 _tx_tail "tx_tail"
  18  0000              	db 0
  18  0003              @ROMDATA_BASE .section inpage 'code'
  18  0003              	db 0
  18  0001              @HCCINIT_tx_tail .section 'data'
  18  0001              	db 0
  18  0003              @ROMDATA_BASE .section inpage 'code'
  18  0003              	db 0
  18  0002              @HCCINIT_tx_tail .section 'data'
  17  0002              #line 17 "D:\Work\Project\bintuo-F73\Software\BS66F360C\Source\ming\drv_iouart_tx.c"
  17  0000              @HCCINIT_tx_head .section 'data'
  17  0000              _tx_head label byte
  17  0000              #pragma debug variable 12 1 _tx_head "tx_head"
  17  0000              	db 0
  17  0004              @ROMDATA_BASE .section inpage 'code'
  17  0004              	db 0
  17  0001              @HCCINIT_tx_head .section 'data'
  17  0001              	db 0
  17  0004              @ROMDATA_BASE .section inpage 'code'
  17  0004              	db 0
  17  0002              @HCCINIT_tx_head .section 'data'
  17  0000              @HCCINIT0_tx_buffer .section 'data'
  17  0000  0018[       _tx_buffer	db 24 dup(0)
            00
            ]
  17  0018              #pragma debug array 44 8 24 1
  17  0018              #pragma debug array 44 8 24 1
  17  0018              #pragma debug variable 44 1 _tx_buffer "tx_buffer"
  17  0018              
  17  0000              @HCCINIT .section 'data'
  17  0000              #pragma debug struct_end
  17  0000              #pragma debug struct_end
  17  0000              #pragma debug union_end
  17  0000              #pragma debug union_end
  17  0000              #pragma debug variable 46 1 ___pa "__pa" 1
  17  0000              #pragma debug struct_end
文件：drv_iouart_tx.c 编译器版本 HGASM 0202 页次10

  17  0000              #pragma debug struct_end
  17  0000              #pragma debug union_end
  17  0000              #pragma debug union_end
  17  0000              #pragma debug variable 48 1 ___pac "__pac" 1
  17  0000              extern _builtin_holtek_udivmodhi4_2:byte
  17  0000              extern _builtin_holtek_udivmodhi4:near
  17  0000              
  17  0000              ; 
  17  0000              ; Generated by holtek-gcc v3.19, Mon Jan 12 15:28:09 2026
  17  0000              ; Rebuild 718
  17  0000              ; end of file


        0 Errors, 0