文件：Function.c   编译器版本 HGASM 0202 页次1


   1  0000              ; Generated by holtek-gcc v3.19, Mon Jan 12 15:28:07 2026
   2  0000              ; 
   3  0000              ; Configuration:
   4  0000              ;       with long instruction
   5  0000              ;       Multi-ROM, Multi-RAM
   6  0000              ;       bits_per_rom_unit:16
   7  0000              ;       with mp1
   8  0000              ;       with tbhp, address(0x9)
   9  0000              ;          Use tabrd-const
  10  0000              ;       
  11  0000              ; SFR address of long-instruction arch:
  12  0000              ;    mp0 = -1,1,0
  13  0000              ;    mp1 = 4,3,2
  14  0000              ;    mp2 = 14,13,12
  15  0000              ;    tbp = 9,7,8
  16  0000              ;    acc = 5
  17  0000              ;    pcl = 6
  18  0000              ;    status = 10
  19  0000              ;    bp = 11
  20  0000              ;    intc = 16
  21  0000              ;       
  22  0000              ;       
  23  0000              ; use 'tabrdc' instead of 'tabrd'
  24  0000              ;       
  25  0000              
  26  0000              #pragma translator "holtek-gcc 4.6.4" "3.19" "build 20130711"
  27  0000              ; Rebuild 718
  28  0000              
  29  0000              ir equ [2]
  30  0000              mp equ [3]
  31  0000              sbp equ [4]
  32  0000              acc equ [5]
  33  0000              bp equ [11]
  34  0000              tblp equ [7]
  35  0000              tbhp equ [9]
  36  0000              status equ [10]
  37  0000              c equ [10].0
  38  0000              ac equ [10].1
  39  0000              z equ [10].2
  40  0000              ov equ [10].3
  41  0000              cz equ [10].6
  42  0000              sc equ [10].7
  43  0000              intc equ [16]
  44  0000              
  45  0000              extern ra:byte
  46  0000              extern rb:byte
  47  0000              extern rc:byte
  48  0000              extern rd:byte
  49  0000              extern re:byte
  50  0000              extern rf:byte
  51  0000              extern rg:byte
  52  0000              extern rh:byte
  53  0000              extern _Crom2Prom:near
  54  0000              extern _Crom2PromNext:near
  55  0000              
  56  0000              RAMBANK 0 @BITDATASEC, @BITDATASEC1
  57  0000              @HCCINIT	.section 'data'
  58  0000              @HCCINIT0	.section 'data'
  59  0000              @BITDATASEC	 .section 'data'
文件：Function.ASM 编译器版本 HGASM 0202 页次2

  60  0000              @BITDATASEC1	 .section 'data'
  61  0000              
  62  0000              #pragma debug scope 1 1
  63  0000              	extern __DELAY3:near
  64  0000              	extern __DELAYX3:near
  65  0000              	extern __DELAYX6:near
  66  0000              	extern __DELAYY5:near
  67  0000              	extern __DELAYY3:near
  68  0000              	extern _builtin_holtek_delay_2:byte
  69  0000              public _Fun_GenVoicePluse
  70  0000              #pragma debug scope 2 1

   6  0000              #line 6 "d:\work\project\bintuo-f73\software\bs66f360c\Source\Function.c"
   6  0000              _Fun_GenVoicePluse .section 'code'
   6  0000              _Fun_GenVoicePluse proc
   6  0000  00              local _Fun_GenVoicePluse_2 db 1 dup(?)	; 0,1
   6  0000  0080     R  	mov _Fun_GenVoicePluse_2[0],a
   6  0001              #pragma debug variable 8 2 _Fun_GenVoicePluse_2+0 "volcePluse"
   7  0001              #line 7 "d:\work\project\bintuo-f73\software\bs66f360c\Source\Function.c"
   7  0001  3C00     E  	sz _WorkFlag5[0].4
   7  0002  2800     R  	jmp _L2
   7  0003              #line 7 "d:\work\project\bintuo-f73\software\bs66f360c\Source\Function.c"
   7  0003  0700     R  	mov a,_Fun_GenVoicePluse_2[0]
   7  0004  0A10        	sub a,16
   7  0005  3D0A        	sz z
   7  0006  2800     R  	jmp _L2
   7  0007  0700     R  	mov a,_Fun_GenVoicePluse_2[0]
   7  0008  0A1A        	sub a,26
   7  0009  390A        	snz z
   7  000A  2800     R  	jmp _L1
   7  000B              _L2:
   9  000B              #line 9 "d:\work\project\bintuo-f73\software\bs66f360c\Source\Function.c"
   9  000B  0700     R  	mov a,_Fun_GenVoicePluse_2[0]
   9  000C  0080     E  	mov _gu8v_VoicePluse[0],a
  10  000D              #line 10 "d:\work\project\bintuo-f73\software\bs66f360c\Source\Function.c"
  10  000D  0F01        	mov a,1
  10  000E  0080     E  	mov _gu8v_RfSendStep[0],a
  11  000F              #line 11 "d:\work\project\bintuo-f73\software\bs66f360c\Source\Function.c"
  11  000F  0F28        	mov a,40
  11  0010  0080     E  	mov _gu8v_RfBitCycle[0],a
  12  0011              #line 12 "d:\work\project\bintuo-f73\software\bs66f360c\Source\Function.c"
  12  0011  1F00     E  	clr _gu8v_RfSendByteCnt[0]
  13  0012              #line 13 "d:\work\project\bintuo-f73\software\bs66f360c\Source\Function.c"
  13  0012  1F00     E  	clr _gu8v_RfSendBitCnt[0]
  13  0013              _L1:
  13  0013  0003        	ret
  13  0014              _Fun_GenVoicePluse endp
  13  0014              #line 13 "d:\work\project\bintuo-f73\software\bs66f360c\Source\Function.c"
  13  0014              #pragma debug scope 1 1
  13  0014              public _Fun_InitWorkOffMode
  13  0014              #pragma debug scope 3 1
  17  0014              #line 17 "d:\work\project\bintuo-f73\software\bs66f360c\Source\Function.c"
  17  0000              _Fun_InitWorkOffMode .section 'code'
  17  0000              _Fun_InitWorkOffMode proc
  18  0000              #line 18 "d:\work\project\bintuo-f73\software\bs66f360c\Source\Function.c"
  18  0000  0F02        	mov a,2
  18  0001  0080     E  	mov _gu8v_WorkMode[0],a
  19  0002              #line 19 "d:\work\project\bintuo-f73\software\bs66f360c\Source\Function.c"
  19  0002  1F00     E  	clr _gu8v_AbFangQiTime[0]
  20  0003              #line 20 "d:\work\project\bintuo-f73\software\bs66f360c\Source\Function.c"
文件：Function.c   编译器版本 HGASM 0202 页次3

  20  0003  3400     E  	clr _WorkFlag5[0].0
  20  0004  0003        	ret
  20  0005              _Fun_InitWorkOffMode endp
  20  0005              #line 20 "d:\work\project\bintuo-f73\software\bs66f360c\Source\Function.c"
  20  0005              #pragma debug scope 1 1
  20  0005              public _Fun_InitWorkOnMode
  20  0005              #pragma debug scope 4 1
  23  0005              #line 23 "d:\work\project\bintuo-f73\software\bs66f360c\Source\Function.c"
  23  0000              _Fun_InitWorkOnMode .section 'code'
  23  0000              _Fun_InitWorkOnMode proc
  24  0000              #line 24 "d:\work\project\bintuo-f73\software\bs66f360c\Source\Function.c"
  24  0000  0F03        	mov a,3
  24  0001  0080     E  	mov _gu8v_WorkMode[0],a
  25  0002              #line 25 "d:\work\project\bintuo-f73\software\bs66f360c\Source\Function.c"
  25  0002  1F00     E  	clr _gu8v_JiaoTiMode[0]
  26  0003              #line 26 "d:\work\project\bintuo-f73\software\bs66f360c\Source\Function.c"
  26  0003  0F58        	mov a,88
  26  0004  0080     E  	mov _gu16v_JiaoTiTime[0],a
  26  0005  0F02        	mov a,2
  26  0006  0080     E  	mov _gu16v_JiaoTiTime[1],a
  27  0007              #line 27 "d:\work\project\bintuo-f73\software\bs66f360c\Source\Function.c"
  27  0007  0F2C        	mov a,44
  27  0008  0080     E  	mov _gu16v_JiaoTiTimeCmp[0],a
  27  0009  0F01        	mov a,1
  27  000A  0080     E  	mov _gu16v_JiaoTiTimeCmp[1],a
  28  000B              #line 28 "d:\work\project\bintuo-f73\software\bs66f360c\Source\Function.c"
  28  000B  1F00     E  	clr _gu16v_JiaoTiTimeCnt[0]
  28  000C  1F00     E  	clr _gu16v_JiaoTiTimeCnt[1]
  29  000D              #line 29 "d:\work\project\bintuo-f73\software\bs66f360c\Source\Function.c"
  29  000D  1F00     E  	clr _gu8v_AbFangQiTime[0]
  30  000E              #line 30 "d:\work\project\bintuo-f73\software\bs66f360c\Source\Function.c"
  30  000E  3400     E  	clr _WorkFlag5[0].0
  30  000F  0003        	ret
  30  0010              _Fun_InitWorkOnMode endp
  30  0010              #line 30 "d:\work\project\bintuo-f73\software\bs66f360c\Source\Function.c"
  30  0010              #pragma debug scope 1 1
  30  0010              public _Fun_CalModeProcess
  30  0010              #pragma debug scope 5 1
  33  0010              #line 33 "d:\work\project\bintuo-f73\software\bs66f360c\Source\Function.c"
  33  0000              _Fun_CalModeProcess .section 'code'
  33  0000              _Fun_CalModeProcess proc
  34  0000              #line 34 "d:\work\project\bintuo-f73\software\bs66f360c\Source\Function.c"
  34  0000  0F03        	mov a,3
  34  0001              	fcall _Beep
  35  0008              #line 35 "d:\work\project\bintuo-f73\software\bs66f360c\Source\Function.c"
  35  0008  1700     E  	sdza _gu8v_CalModeIndex[0]
  35  0009  2800     R  	jmp _L7
  41  000A              #line 41 "d:\work\project\bintuo-f73\software\bs66f360c\Source\Function.c"
  41  000A  0F90        	mov a,144
  41  000B  0300     E  	add a,_gu16v_AbAdcZeroData[0]
  41  000C  0080     E  	mov rb,a
  41  000D  0F01        	mov a,1
  41  000E  1300     E  	adc a,_gu16v_AbAdcZeroData[1]
  41  000F  0080     E  	mov rc,a
  41  0010  0700     E  	mov a,rb
  41  0011  0200     E  	sub a,_gu16v_Ab150CalDataEe[0]
  41  0012  0700     E  	mov a,rc
  41  0013  1200     E  	sbc a,_gu16v_Ab150CalDataEe[1]
  41  0014  3C0A        	sz c
  41  0015  2800     R  	jmp _L10
文件：Function.c   编译器版本 HGASM 0202 页次4

  41  0016  0F90        	mov a,144
  41  0017  0300     E  	add a,_gu16v_FunAdcZeroData[0]
  41  0018  0080     E  	mov rb,a
  41  0019  0F01        	mov a,1
  41  001A  1300     E  	adc a,_gu16v_FunAdcZeroData[1]
  41  001B  0080     E  	mov rc,a
  41  001C  0700     E  	mov a,rb
  41  001D  0200     E  	sub a,_gu16v_Fun150CalDataEe[0]
  41  001E  0700     E  	mov a,rc
  41  001F  1200     E  	sbc a,_gu16v_Fun150CalDataEe[1]
  41  0020  3C0A        	sz c
  41  0021  2800     R  	jmp _L10
  43  0022              #line 43 "d:\work\project\bintuo-f73\software\bs66f360c\Source\Function.c"
  43  0022  3000     E  	set _WorkFlag4[0].6
  44  0023              #line 44 "d:\work\project\bintuo-f73\software\bs66f360c\Source\Function.c"
  44  0023  0700     E  	mov a,_gu16v_Ab150CalDataEe[0]
  44  0024  0080     E  	mov _gu16v_Ab150CalDataEeCopy[0],a
  44  0025  0700     E  	mov a,_gu16v_Ab150CalDataEe[1]
  44  0026  0080     E  	mov _gu16v_Ab150CalDataEeCopy[1],a
  45  0027              #line 45 "d:\work\project\bintuo-f73\software\bs66f360c\Source\Function.c"
  45  0027  0700     E  	mov a,_gu16v_Fun150CalDataEe[0]
  45  0028  0080     E  	mov _gu16v_Fun150CalDataEeCopy[0],a
  45  0029  0700     E  	mov a,_gu16v_Fun150CalDataEe[1]
  45  002A  0080     E  	mov _gu16v_Fun150CalDataEeCopy[1],a
  45  002B  2800     R  	jmp _L7
  45  002C              _L10:
  49  002C              #line 49 "d:\work\project\bintuo-f73\software\bs66f360c\Source\Function.c"
  49  002C  1F80     E  	set _gu8v_CalModeIndex[0]
  50  002D              #line 50 "d:\work\project\bintuo-f73\software\bs66f360c\Source\Function.c"
  50  002D  0F03        	mov a,3
  50  002E              	fcall _Beep
  50  0035              _L7:
  50  0035  0003        	ret
  50  0036              _Fun_CalModeProcess endp
  50  0036              #line 50 "d:\work\project\bintuo-f73\software\bs66f360c\Source\Function.c"
  50  0036              #pragma debug scope 1 1
  50  0036              public _GetSensorCalAdcData_Task
  50  0036              #pragma debug scope 6 1
  74  0036              #line 74 "d:\work\project\bintuo-f73\software\bs66f360c\Source\Function.c"
  74  0000              _GetSensorCalAdcData_Task .section 'code'
  74  0000              _GetSensorCalAdcData_Task proc
  74  0000  00              local _GetSensorCalAdcData_Task_2 db 1 dup(?)	; 0,1
  76  0001              #line 76 "d:\work\project\bintuo-f73\software\bs66f360c\Source\Function.c"
  76  0000  0700     E  	mov a,_gu16v_ABAdcSensor[0]
  76  0001  0380     E  	addm a,_gu16v_AbAdcZeroDataSum[0]
  76  0002  0700     E  	mov a,_gu16v_ABAdcSensor[1]
  76  0003  1380     E  	adcm a,_gu16v_AbAdcZeroDataSum[1]
  77  0004              #line 77 "d:\work\project\bintuo-f73\software\bs66f360c\Source\Function.c"
  77  0004  0700     E  	mov a,_gu16v_FunAdcSensor[0]
  77  0005  0380     E  	addm a,_gu16v_FunAdcZeroDataSum[0]
  77  0006  0700     E  	mov a,_gu16v_FunAdcSensor[1]
  77  0007  1380     E  	adcm a,_gu16v_FunAdcZeroDataSum[1]
  78  0008              #line 78 "d:\work\project\bintuo-f73\software\bs66f360c\Source\Function.c"
  78  0008  1480     E  	inc _gu8v_AbGetAdcZeroCnt[0]
  79  0009              #line 79 "d:\work\project\bintuo-f73\software\bs66f360c\Source\Function.c"
  79  0009  0F07        	mov a,7
  79  000A  0200     E  	sub a,_gu8v_AbGetAdcZeroCnt[0]
  79  000B  3C0A        	sz c
  79  000C  2800     R  	jmp _L11
  81  000D              #line 81 "d:\work\project\bintuo-f73\software\bs66f360c\Source\Function.c"
文件：Function.c   编译器版本 HGASM 0202 页次5

  81  000D  1F00     E  	clr _gu8v_AbGetAdcZeroCnt[0]
  82  000E              #line 82 "d:\work\project\bintuo-f73\software\bs66f360c\Source\Function.c"
  82  000E  0F03        	mov a,3
  82  000F              _LI1:
  82  000F  340A        	clr c
  82  0010  1B80     E  	rrc _gu16v_AbAdcZeroDataSum[1]
  82  0011  1B80     E  	rrc _gu16v_AbAdcZeroDataSum[0]
  82  0012  1785        	sdz acc
  82  0013  2800     R  	jmp _LI1
  83  0014              #line 83 "d:\work\project\bintuo-f73\software\bs66f360c\Source\Function.c"
  83  0014  0F03        	mov a,3
  83  0015              _LI2:
  83  0015  340A        	clr c
  83  0016  1B80     E  	rrc _gu16v_FunAdcZeroDataSum[1]
  83  0017  1B80     E  	rrc _gu16v_FunAdcZeroDataSum[0]
  83  0018  1785        	sdz acc
  83  0019  2800     R  	jmp _LI2
  84  001A              #line 84 "d:\work\project\bintuo-f73\software\bs66f360c\Source\Function.c"
  84  001A  0700     E  	mov a,_gu8v_CalModeIndex[0]
  84  001B  0080     R  	mov _GetSensorCalAdcData_Task_2[0],a
  84  001C  1E00     R  	snz _GetSensorCalAdcData_Task_2[0]
  84  001D  2800     R  	jmp _L14
  84  001E  1700     R  	sdza _GetSensorCalAdcData_Task_2[0]
  84  001F  2800     R  	jmp _L13
  94  0020              #line 94 "d:\work\project\bintuo-f73\software\bs66f360c\Source\Function.c"
  94  0020  0700     E  	mov a,_gu16v_AbAdcZeroDataSum[0]
  94  0021  0080     E  	mov _gu16v_Ab150CalDataEe[0],a
  94  0022  0700     E  	mov a,_gu16v_AbAdcZeroDataSum[1]
  94  0023  0080     E  	mov _gu16v_Ab150CalDataEe[1],a
  95  0024              #line 95 "d:\work\project\bintuo-f73\software\bs66f360c\Source\Function.c"
  95  0024  0700     E  	mov a,_gu16v_FunAdcZeroDataSum[0]
  95  0025  0080     E  	mov _gu16v_Fun150CalDataEe[0],a
  95  0026  0700     E  	mov a,_gu16v_FunAdcZeroDataSum[1]
  95  0027  0080     E  	mov _gu16v_Fun150CalDataEe[1],a
  96  0028              #line 96 "d:\work\project\bintuo-f73\software\bs66f360c\Source\Function.c"
  96  0028  2800     R  	jmp _L13
  96  0029              _L14:
  87  0029              #line 87 "d:\work\project\bintuo-f73\software\bs66f360c\Source\Function.c"
  87  0029  3400     E  	clr _WorkFlag4[0].1
  88  002A              #line 88 "d:\work\project\bintuo-f73\software\bs66f360c\Source\Function.c"
  88  002A  3000     E  	set _WorkFlag4[0].2
  89  002B              #line 89 "d:\work\project\bintuo-f73\software\bs66f360c\Source\Function.c"
  89  002B  0700     E  	mov a,_gu16v_AbAdcZeroDataSum[0]
  89  002C  0080     E  	mov _gu16v_AbAdcZeroData[0],a
  89  002D  0700     E  	mov a,_gu16v_AbAdcZeroDataSum[1]
  89  002E  0080     E  	mov _gu16v_AbAdcZeroData[1],a
  90  002F              #line 90 "d:\work\project\bintuo-f73\software\bs66f360c\Source\Function.c"
  90  002F  0700     E  	mov a,_gu16v_FunAdcZeroDataSum[0]
  90  0030  0080     E  	mov _gu16v_FunAdcZeroData[0],a
  90  0031  0700     E  	mov a,_gu16v_FunAdcZeroDataSum[1]
  90  0032  0080     E  	mov _gu16v_FunAdcZeroData[1],a
  91  0033              #line 91 "d:\work\project\bintuo-f73\software\bs66f360c\Source\Function.c"
  91  0033  0F01        	mov a,1
  91  0034  0080     E  	mov _gu8v_CalModeIndex[0],a
  91  0035              _L13:
 103  0035              #line 103 "d:\work\project\bintuo-f73\software\bs66f360c\Source\Function.c"
 103  0035  1F00     E  	clr _gu16v_AbAdcZeroDataSum[0]
 103  0036  1F00     E  	clr _gu16v_AbAdcZeroDataSum[1]
 104  0037              #line 104 "d:\work\project\bintuo-f73\software\bs66f360c\Source\Function.c"
 104  0037  1F00     E  	clr _gu16v_FunAdcZeroDataSum[0]
文件：Function.c   编译器版本 HGASM 0202 页次6

 104  0038  1F00     E  	clr _gu16v_FunAdcZeroDataSum[1]
 104  0039              _L11:
 104  0039  0003        	ret
 104  003A              _GetSensorCalAdcData_Task endp
 104  003A              #line 104 "d:\work\project\bintuo-f73\software\bs66f360c\Source\Function.c"
 104  003A              #pragma debug scope 1 1
 104  003A              public _FunPressure_Task
 104  003A              #pragma debug scope 7 1
 110  003A              #line 110 "d:\work\project\bintuo-f73\software\bs66f360c\Source\Function.c"
 110  0000              _FunPressure_Task .section 'code'
 110  0000              _FunPressure_Task proc
 112  0000              #line 112 "d:\work\project\bintuo-f73\software\bs66f360c\Source\Function.c"
 112  0000  3800     E  	snz _WorkFlag4[0].0
 112  0001  2800     R  	jmp _L16
 114  0002              #line 114 "d:\work\project\bintuo-f73\software\bs66f360c\Source\Function.c"
 114  0002  3400     E  	clr _WorkFlag4[0].0
 116  0003              #line 116 "d:\work\project\bintuo-f73\software\bs66f360c\Source\Function.c"
 116  0003  3800     E  	snz _WorkFlag4[0].3
 116  0004  2800     R  	jmp _L19
 118  0005              #line 118 "d:\work\project\bintuo-f73\software\bs66f360c\Source\Function.c"
 118  0005              	fcall _GetSensorCalAdcData_Task
 118  000C  2800     R  	jmp _L16
 118  000D              _L19:
 122  000D              #line 122 "d:\work\project\bintuo-f73\software\bs66f360c\Source\Function.c"
 122  000D  0700     E  	mov a,_gu8v_WorkMode[0]
 122  000E  0A03        	sub a,3
 122  000F  390A        	snz z
 122  0010  2800     R  	jmp _L16
 124  0011              #line 124 "d:\work\project\bintuo-f73\software\bs66f360c\Source\Function.c"
 124  0011  1080     E  	sz _gu8v_AbFangQiTime[0]
 124  0012  2800     R  	jmp _L21
 134  0013              #line 134 "d:\work\project\bintuo-f73\software\bs66f360c\Source\Function.c"
 134  0013  0F04        	mov a,4
 134  0014  0300     E  	add a,_gu8v_PressureMode[0]
 134  0015  0080     E  	mov _gu16v_AbSensroCmp[0],a
 134  0016  0F00        	mov a,0
 134  0017  1F00     E  	clr _gu16v_AbSensroCmp[1]
 134  0018  1380     E  	adcm a,_gu16v_AbSensroCmp[1]
 135  0019              #line 135 "d:\work\project\bintuo-f73\software\bs66f360c\Source\Function.c"
 135  0019  0700     E  	mov a,_gu16v_AbSensroCmp[0]
 135  001A  0080     E  	mov rb,a
 135  001B  0700     E  	mov a,_gu16v_AbSensroCmp[1]
 135  001C  0080     E  	mov rc,a
 135  001D  340A        	clr c
 135  001E  1A00     E  	rlca rb
 135  001F  0080     E  	mov rd,a
 135  0020  1A00     E  	rlca rc
 135  0021  0080     E  	mov re,a
 135  0022  340A        	clr c
 135  0023  1A80     E  	rlc rd
 135  0024  1A80     E  	rlc re
 135  0025  0700     E  	mov a,rd
 135  0026  0380     E  	addm a,rb
 135  0027  0700     E  	mov a,re
 135  0028  1380     E  	adcm a,rc
 135  0029  340A        	clr c
 135  002A  1A00     E  	rlca rb
 135  002B  0080     E  	mov _gu16v_AbSensroCmp[0],a
 135  002C  1A00     E  	rlca rc
 135  002D  0080     E  	mov _gu16v_AbSensroCmp[1],a
文件：Function.c   编译器版本 HGASM 0202 页次7

 137  002E              #line 137 "d:\work\project\bintuo-f73\software\bs66f360c\Source\Function.c"
 137  002E  0700     E  	mov a,_gu16v_Ab7P5mmHgData[0]
 137  002F  0080     E  	mov rb,a
 137  0030  0700     E  	mov a,_gu16v_Ab7P5mmHgData[1]
 137  0031  0080     E  	mov rc,a
 137  0032  340A        	clr c
 137  0033  1A00     E  	rlca rb
 137  0034  0080     E  	mov rd,a
 137  0035  1A00     E  	rlca rc
 137  0036  0080     E  	mov re,a
 137  0037  0700     E  	mov a,rd
 137  0038  0380     E  	addm a,rb
 137  0039  0700     E  	mov a,re
 137  003A  1380     E  	adcm a,rc
 137  003B  0700     E  	mov a,_gu16v_AbAdcZeroData[0]
 137  003C  0380     E  	addm a,rb
 137  003D  0700     E  	mov a,_gu16v_AbAdcZeroData[1]
 137  003E  1380     E  	adcm a,rc
 137  003F  0700     E  	mov a,rb
 137  0040  0200     E  	sub a,_gu16v_ABAdcSensor[0]
 137  0041  0700     E  	mov a,rc
 137  0042  1200     E  	sbc a,_gu16v_ABAdcSensor[1]
 137  0043  3C0A        	sz c
 137  0044  2800     R  	jmp _L22
 139  0045              #line 139 "d:\work\project\bintuo-f73\software\bs66f360c\Source\Function.c"
 139  0045  1480     E  	inc _gu8v_AbPressureLowNorAdcCnt[0]
 140  0046              #line 140 "d:\work\project\bintuo-f73\software\bs66f360c\Source\Function.c"
 140  0046  0F04        	mov a,4
 140  0047  0200     E  	sub a,_gu8v_AbPressureLowNorAdcCnt[0]
 140  0048  3C0A        	sz c
 140  0049  2800     R  	jmp _L24
 142  004A              #line 142 "d:\work\project\bintuo-f73\software\bs66f360c\Source\Function.c"
 142  004A  1F00     E  	clr _gu8v_AbPressureLowNorAdcCnt[0]
 143  004B              #line 143 "d:\work\project\bintuo-f73\software\bs66f360c\Source\Function.c"
 143  004B  1F00     E  	clr _gu16v_AbPressureLowErrTimeCnt[0]
 143  004C  1F00     E  	clr _gu16v_AbPressureLowErrTimeCnt[1]
 144  004D              #line 144 "d:\work\project\bintuo-f73\software\bs66f360c\Source\Function.c"
 144  004D  0FF0        	mov a,-16
 144  004E  0080     E  	mov _gu16v_AbPressureLowErrTimeCmp[0],a
 144  004F  1F00     E  	clr _gu16v_AbPressureLowErrTimeCmp[1]
 145  0050              #line 145 "d:\work\project\bintuo-f73\software\bs66f360c\Source\Function.c"
 145  0050  3400     E  	clr _WorkFlag6[0].2
 145  0051  2800     R  	jmp _L24
 145  0052              _L22:
 150  0052              #line 150 "d:\work\project\bintuo-f73\software\bs66f360c\Source\Function.c"
 150  0052  1F00     E  	clr _gu8v_AbPressureLowNorAdcCnt[0]
 151  0053              #line 151 "d:\work\project\bintuo-f73\software\bs66f360c\Source\Function.c"
 151  0053  3800     E  	snz _TimeFlag2[0].1
 151  0054  2800     R  	jmp _L24
 153  0055              #line 153 "d:\work\project\bintuo-f73\software\bs66f360c\Source\Function.c"
 153  0055  3400     E  	clr _TimeFlag2[0].1
 154  0056              #line 154 "d:\work\project\bintuo-f73\software\bs66f360c\Source\Function.c"
 154  0056  1480     E  	inc _gu16v_AbPressureLowErrTimeCnt[0]
 154  0057  3D0A        	sz z
 154  0058  1480     E  	inc _gu16v_AbPressureLowErrTimeCnt[1]
 155  0059              #line 155 "d:\work\project\bintuo-f73\software\bs66f360c\Source\Function.c"
 155  0059  0700     E  	mov a,_gu16v_AbPressureLowErrTimeCnt[0]
 155  005A  0200     E  	sub a,_gu16v_AbPressureLowErrTimeCmp[0]
 155  005B  0700     E  	mov a,_gu16v_AbPressureLowErrTimeCnt[1]
 155  005C  1200     E  	sbc a,_gu16v_AbPressureLowErrTimeCmp[1]
文件：Function.c   编译器版本 HGASM 0202 页次8

 155  005D  380A        	snz c
 155  005E  2800     R  	jmp _L24
 157  005F              #line 157 "d:\work\project\bintuo-f73\software\bs66f360c\Source\Function.c"
 157  005F  1F00     E  	clr _gu16v_AbPressureLowErrTimeCnt[0]
 157  0060  1F00     E  	clr _gu16v_AbPressureLowErrTimeCnt[1]
 158  0061              #line 158 "d:\work\project\bintuo-f73\software\bs66f360c\Source\Function.c"
 158  0061  3000     E  	set _WorkFlag6[0].2
 158  0062              _L24:
 162  0062              #line 162 "d:\work\project\bintuo-f73\software\bs66f360c\Source\Function.c"
 162  0062  0700     E  	mov a,_gu8v_AbNumDisValue[0]
 162  0063  0080     E  	mov rd,a
 162  0064  1F00     E  	clr re
 162  0065  0F0A        	mov a,10
 162  0066  0300     E  	add a,_gu16v_AbSensroCmp[0]
 162  0067  0080     E  	mov rb,a
 162  0068  0F00        	mov a,0
 162  0069  1300     E  	adc a,_gu16v_AbSensroCmp[1]
 162  006A  0080     E  	mov rc,a
 162  006B  0700     E  	mov a,rd
 162  006C  0200     E  	sub a,rb
 162  006D  0700     E  	mov a,re
 162  006E  1200     E  	sbc a,rc
 162  006F  380A        	snz c
 162  0070  2800     R  	jmp _L26
 164  0071              #line 164 "d:\work\project\bintuo-f73\software\bs66f360c\Source\Function.c"
 164  0071  1480     E  	inc _gu8v_AbSensorPressureCnt[0]
 165  0072              #line 165 "d:\work\project\bintuo-f73\software\bs66f360c\Source\Function.c"
 165  0072  0F04        	mov a,4
 165  0073  0200     E  	sub a,_gu8v_AbSensorPressureCnt[0]
 165  0074  3C0A        	sz c
 165  0075  2800     R  	jmp _L28
 167  0076              #line 167 "d:\work\project\bintuo-f73\software\bs66f360c\Source\Function.c"
 167  0076  1F00     E  	clr _gu8v_AbSensorPressureCnt[0]
 168  0077              #line 168 "d:\work\project\bintuo-f73\software\bs66f360c\Source\Function.c"
 168  0077  3000     E  	set _WorkFlag2[0].6
 169  0078              #line 169 "d:\work\project\bintuo-f73\software\bs66f360c\Source\Function.c"
 169  0078  0700     E  	mov a,_gu8v_AbNumDisValue[0]
 169  0079  0080     E  	mov rd,a
 169  007A  1F00     E  	clr re
 169  007B  0F50        	mov a,80
 169  007C  0300     E  	add a,_gu16v_AbSensroCmp[0]
 169  007D  0080     E  	mov rb,a
 169  007E  0F00        	mov a,0
 169  007F  1300     E  	adc a,_gu16v_AbSensroCmp[1]
 169  0080  0080     E  	mov rc,a
 169  0081  0700     E  	mov a,rd
 169  0082  0200     E  	sub a,rb
 169  0083  0700     E  	mov a,re
 169  0084  1200     E  	sbc a,rc
 169  0085  380A        	snz c
 169  0086  2800     R  	jmp _L29
 171  0087              #line 171 "d:\work\project\bintuo-f73\software\bs66f360c\Source\Function.c"
 171  0087  0FFA        	mov a,250
 171  0088  0080     E  	mov _gu8v_AbFangQiTime[0],a
 171  0089  2800     R  	jmp _L30
 171  008A              _L29:
 173  008A              #line 173 "d:\work\project\bintuo-f73\software\bs66f360c\Source\Function.c"
 173  008A  0700     E  	mov a,_gu8v_AbNumDisValue[0]
 173  008B  0080     E  	mov rd,a
 173  008C  1F00     E  	clr re
文件：Function.c   编译器版本 HGASM 0202 页次9

 173  008D  0F46        	mov a,70
 173  008E  0300     E  	add a,_gu16v_AbSensroCmp[0]
 173  008F  0080     E  	mov rb,a
 173  0090  0F00        	mov a,0
 173  0091  1300     E  	adc a,_gu16v_AbSensroCmp[1]
 173  0092  0080     E  	mov rc,a
 173  0093  0700     E  	mov a,rd
 173  0094  0200     E  	sub a,rb
 173  0095  0700     E  	mov a,re
 173  0096  1200     E  	sbc a,rc
 173  0097  380A        	snz c
 173  0098  2800     R  	jmp _L31
 175  0099              #line 175 "d:\work\project\bintuo-f73\software\bs66f360c\Source\Function.c"
 175  0099  0FDC        	mov a,220
 175  009A  0080     E  	mov _gu8v_AbFangQiTime[0],a
 175  009B  2800     R  	jmp _L30
 175  009C              _L31:
 177  009C              #line 177 "d:\work\project\bintuo-f73\software\bs66f360c\Source\Function.c"
 177  009C  0700     E  	mov a,_gu8v_AbNumDisValue[0]
 177  009D  0080     E  	mov rd,a
 177  009E  1F00     E  	clr re
 177  009F  0F3C        	mov a,60
 177  00A0  0300     E  	add a,_gu16v_AbSensroCmp[0]
 177  00A1  0080     E  	mov rb,a
 177  00A2  0F00        	mov a,0
 177  00A3  1300     E  	adc a,_gu16v_AbSensroCmp[1]
 177  00A4  0080     E  	mov rc,a
 177  00A5  0700     E  	mov a,rd
 177  00A6  0200     E  	sub a,rb
 177  00A7  0700     E  	mov a,re
 177  00A8  1200     E  	sbc a,rc
 177  00A9  380A        	snz c
 177  00AA  2800     R  	jmp _L32
 179  00AB              #line 179 "d:\work\project\bintuo-f73\software\bs66f360c\Source\Function.c"
 179  00AB  0FBE        	mov a,190
 179  00AC  0080     E  	mov _gu8v_AbFangQiTime[0],a
 179  00AD  2800     R  	jmp _L30
 179  00AE              _L32:
 181  00AE              #line 181 "d:\work\project\bintuo-f73\software\bs66f360c\Source\Function.c"
 181  00AE  0700     E  	mov a,_gu8v_AbNumDisValue[0]
 181  00AF  0080     E  	mov rd,a
 181  00B0  1F00     E  	clr re
 181  00B1  0F32        	mov a,50
 181  00B2  0300     E  	add a,_gu16v_AbSensroCmp[0]
 181  00B3  0080     E  	mov rb,a
 181  00B4  0F00        	mov a,0
 181  00B5  1300     E  	adc a,_gu16v_AbSensroCmp[1]
 181  00B6  0080     E  	mov rc,a
 181  00B7  0700     E  	mov a,rd
 181  00B8  0200     E  	sub a,rb
 181  00B9  0700     E  	mov a,re
 181  00BA  1200     E  	sbc a,rc
 181  00BB  380A        	snz c
 181  00BC  2800     R  	jmp _L33
 183  00BD              #line 183 "d:\work\project\bintuo-f73\software\bs66f360c\Source\Function.c"
 183  00BD  0FA0        	mov a,160
 183  00BE  0080     E  	mov _gu8v_AbFangQiTime[0],a
 183  00BF  2800     R  	jmp _L30
 183  00C0              _L33:
 185  00C0              #line 185 "d:\work\project\bintuo-f73\software\bs66f360c\Source\Function.c"
文件：Function.c   编译器版本 HGASM 0202 页次10

 185  00C0  0700     E  	mov a,_gu8v_AbNumDisValue[0]
 185  00C1  0080     E  	mov rd,a
 185  00C2  1F00     E  	clr re
 185  00C3  0F28        	mov a,40
 185  00C4  0300     E  	add a,_gu16v_AbSensroCmp[0]
 185  00C5  0080     E  	mov rb,a
 185  00C6  0F00        	mov a,0
 185  00C7  1300     E  	adc a,_gu16v_AbSensroCmp[1]
 185  00C8  0080     E  	mov rc,a
 185  00C9  0700     E  	mov a,rd
 185  00CA  0200     E  	sub a,rb
 185  00CB  0700     E  	mov a,re
 185  00CC  1200     E  	sbc a,rc
 185  00CD  380A        	snz c
 185  00CE  2800     R  	jmp _L34
 187  00CF              #line 187 "d:\work\project\bintuo-f73\software\bs66f360c\Source\Function.c"
 187  00CF  0F82        	mov a,130
 187  00D0  0080     E  	mov _gu8v_AbFangQiTime[0],a
 187  00D1  2800     R  	jmp _L30
 187  00D2              _L34:
 189  00D2              #line 189 "d:\work\project\bintuo-f73\software\bs66f360c\Source\Function.c"
 189  00D2  0700     E  	mov a,_gu8v_AbNumDisValue[0]
 189  00D3  0080     E  	mov rd,a
 189  00D4  1F00     E  	clr re
 189  00D5  0F1E        	mov a,30
 189  00D6  0300     E  	add a,_gu16v_AbSensroCmp[0]
 189  00D7  0080     E  	mov rb,a
 189  00D8  0F00        	mov a,0
 189  00D9  1300     E  	adc a,_gu16v_AbSensroCmp[1]
 189  00DA  0080     E  	mov rc,a
 189  00DB  0700     E  	mov a,rd
 189  00DC  0200     E  	sub a,rb
 189  00DD  0700     E  	mov a,re
 189  00DE  1200     E  	sbc a,rc
 189  00DF  380A        	snz c
 189  00E0  2800     R  	jmp _L35
 191  00E1              #line 191 "d:\work\project\bintuo-f73\software\bs66f360c\Source\Function.c"
 191  00E1  0F64        	mov a,100
 191  00E2  0080     E  	mov _gu8v_AbFangQiTime[0],a
 191  00E3  2800     R  	jmp _L30
 191  00E4              _L35:
 193  00E4              #line 193 "d:\work\project\bintuo-f73\software\bs66f360c\Source\Function.c"
 193  00E4  0700     E  	mov a,_gu8v_AbNumDisValue[0]
 193  00E5  0080     E  	mov rd,a
 193  00E6  1F00     E  	clr re
 193  00E7  0F14        	mov a,20
 193  00E8  0300     E  	add a,_gu16v_AbSensroCmp[0]
 193  00E9  0080     E  	mov rb,a
 193  00EA  0F00        	mov a,0
 193  00EB  1300     E  	adc a,_gu16v_AbSensroCmp[1]
 193  00EC  0080     E  	mov rc,a
 193  00ED  0700     E  	mov a,rd
 193  00EE  0200     E  	sub a,rb
 193  00EF  0700     E  	mov a,re
 193  00F0  1200     E  	sbc a,rc
 193  00F1  380A        	snz c
 193  00F2  2800     R  	jmp _L36
 195  00F3              #line 195 "d:\work\project\bintuo-f73\software\bs66f360c\Source\Function.c"
 195  00F3  0F46        	mov a,70
 195  00F4  0080     E  	mov _gu8v_AbFangQiTime[0],a
文件：Function.c   编译器版本 HGASM 0202 页次11

 195  00F5  2800     R  	jmp _L30
 195  00F6              _L36:
 199  00F6              #line 199 "d:\work\project\bintuo-f73\software\bs66f360c\Source\Function.c"
 199  00F6  0F28        	mov a,40
 199  00F7  0080     E  	mov _gu8v_AbFangQiTime[0],a
 199  00F8              _L30:
 201  00F8              #line 201 "d:\work\project\bintuo-f73\software\bs66f360c\Source\Function.c"
 201  00F8  3000     E  	set _WorkFlag5[0].0
 202  00F9              #line 202 "d:\work\project\bintuo-f73\software\bs66f360c\Source\Function.c"
 202  00F9  2800     R  	jmp _L37
 202  00FA              _L26:
 207  00FA              #line 207 "d:\work\project\bintuo-f73\software\bs66f360c\Source\Function.c"
 207  00FA  3C00     E  	sz _WorkFlag1[0].3
 207  00FB  2800     R  	jmp _L38
 209  00FC              #line 209 "d:\work\project\bintuo-f73\software\bs66f360c\Source\Function.c"
 209  00FC  0F77        	mov a,119
 209  00FD  0200     E  	sub a,_gu8v_AbNumDisValue[0]
 209  00FE  3C0A        	sz c
 209  00FF  2800     R  	jmp _L39
 211  0100              #line 211 "d:\work\project\bintuo-f73\software\bs66f360c\Source\Function.c"
 211  0100  1480     E  	inc _gu8v_12KpDebounce[0]
 212  0101              #line 212 "d:\work\project\bintuo-f73\software\bs66f360c\Source\Function.c"
 212  0101  0F04        	mov a,4
 212  0102  0200     E  	sub a,_gu8v_12KpDebounce[0]
 212  0103  3C0A        	sz c
 212  0104  2800     R  	jmp _L28
 214  0105              #line 214 "d:\work\project\bintuo-f73\software\bs66f360c\Source\Function.c"
 214  0105  1F00     E  	clr _gu8v_12KpDebounce[0]
 215  0106              #line 215 "d:\work\project\bintuo-f73\software\bs66f360c\Source\Function.c"
 215  0106  3800     E  	snz _WorkFlag5[0].2
 215  0107  2800     R  	jmp _L41
 215  0108  3400     E  	clr _WorkFlag5[0].2
 215  0109              _L41:
 216  0109              #line 216 "d:\work\project\bintuo-f73\software\bs66f360c\Source\Function.c"
 216  0109  3C00     E  	sz _WorkFlag1[0].3
 216  010A  2800     R  	jmp _L28
 218  010B              #line 218 "d:\work\project\bintuo-f73\software\bs66f360c\Source\Function.c"
 218  010B  3000     E  	set _WorkFlag1[0].3
 218  010C  2800     R  	jmp _L28
 218  010D              _L39:
 224  010D              #line 224 "d:\work\project\bintuo-f73\software\bs66f360c\Source\Function.c"
 224  010D  1F00     E  	clr _gu8v_12KpDebounce[0]
 224  010E  2800     R  	jmp _L28
 224  010F              _L38:
 230  010F              #line 230 "d:\work\project\bintuo-f73\software\bs66f360c\Source\Function.c"
 230  010F  0700     E  	mov a,_gu8v_AbNumDisValue[0]
 230  0110  0080     E  	mov rd,a
 230  0111  1F00     E  	clr re
 230  0112  0F05        	mov a,5
 230  0113  0300     E  	add a,_gu16v_AbSensroCmp[0]
 230  0114  0080     E  	mov rb,a
 230  0115  0F00        	mov a,0
 230  0116  1300     E  	adc a,_gu16v_AbSensroCmp[1]
 230  0117  0080     E  	mov rc,a
 230  0118  0700     E  	mov a,rd
 230  0119  0200     E  	sub a,rb
 230  011A  0700     E  	mov a,re
 230  011B  1200     E  	sbc a,rc
 230  011C  380A        	snz c
 230  011D  2800     R  	jmp _L42
文件：Function.c   编译器版本 HGASM 0202 页次12

 232  011E              #line 232 "d:\work\project\bintuo-f73\software\bs66f360c\Source\Function.c"
 232  011E  1F00     E  	clr _gu8v_AbMotoOnDebounce[0]
 233  011F              #line 233 "d:\work\project\bintuo-f73\software\bs66f360c\Source\Function.c"
 233  011F  1480     E  	inc _gu8v_AbMotoOffDebounce[0]
 234  0120              #line 234 "d:\work\project\bintuo-f73\software\bs66f360c\Source\Function.c"
 234  0120  0F04        	mov a,4
 234  0121  0200     E  	sub a,_gu8v_AbMotoOffDebounce[0]
 234  0122  3C0A        	sz c
 234  0123  2800     R  	jmp _L28
 236  0124              #line 236 "d:\work\project\bintuo-f73\software\bs66f360c\Source\Function.c"
 236  0124  1F00     E  	clr _gu8v_AbMotoOffDebounce[0]
 237  0125              #line 237 "d:\work\project\bintuo-f73\software\bs66f360c\Source\Function.c"
 237  0125  3000     E  	set _WorkFlag2[0].6
 237  0126  2800     R  	jmp _L28
 237  0127              _L42:
 242  0127              #line 242 "d:\work\project\bintuo-f73\software\bs66f360c\Source\Function.c"
 242  0127  1F00     E  	clr _gu8v_AbMotoOffDebounce[0]
 243  0128              #line 243 "d:\work\project\bintuo-f73\software\bs66f360c\Source\Function.c"
 243  0128  0700     E  	mov a,_gu8v_AbNumDisValue[0]
 243  0129  0080     E  	mov rb,a
 243  012A  1F00     E  	clr rc
 243  012B  0700     E  	mov a,_gu16v_AbSensroCmp[0]
 243  012C  0200     E  	sub a,rb
 243  012D  0700     E  	mov a,_gu16v_AbSensroCmp[1]
 243  012E  1200     E  	sbc a,rc
 243  012F  380A        	snz c
 243  0130  2800     R  	jmp _L44
 245  0131              #line 245 "d:\work\project\bintuo-f73\software\bs66f360c\Source\Function.c"
 245  0131  1480     E  	inc _gu8v_AbMotoOnDebounce[0]
 246  0132              #line 246 "d:\work\project\bintuo-f73\software\bs66f360c\Source\Function.c"
 246  0132  0F04        	mov a,4
 246  0133  0200     E  	sub a,_gu8v_AbMotoOnDebounce[0]
 246  0134  3C0A        	sz c
 246  0135  2800     R  	jmp _L44
 248  0136              #line 248 "d:\work\project\bintuo-f73\software\bs66f360c\Source\Function.c"
 248  0136  1F00     E  	clr _gu8v_AbMotoOnDebounce[0]
 249  0137              #line 249 "d:\work\project\bintuo-f73\software\bs66f360c\Source\Function.c"
 249  0137  3400     E  	clr _WorkFlag2[0].6
 249  0138              _L44:
 253  0138              #line 253 "d:\work\project\bintuo-f73\software\bs66f360c\Source\Function.c"
 253  0138  0700     E  	mov a,_gu8v_AbNumDisValue[0]
 253  0139  0080     E  	mov rd,a
 253  013A  1F00     E  	clr re
 253  013B  0F02        	mov a,2
 253  013C  0300     E  	add a,_gu16v_AbSensroCmp[0]
 253  013D  0080     E  	mov rb,a
 253  013E  0F00        	mov a,0
 253  013F  1300     E  	adc a,_gu16v_AbSensroCmp[1]
 253  0140  0080     E  	mov rc,a
 253  0141  0700     E  	mov a,rd
 253  0142  0200     E  	sub a,rb
 253  0143  0700     E  	mov a,re
 253  0144  1200     E  	sbc a,rc
 253  0145  380A        	snz c
 253  0146  2800     R  	jmp _L46
 255  0147              #line 255 "d:\work\project\bintuo-f73\software\bs66f360c\Source\Function.c"
 255  0147  1F00     E  	clr _gu8v_AbPressureNoFullAdcCnt[0]
 256  0148              #line 256 "d:\work\project\bintuo-f73\software\bs66f360c\Source\Function.c"
 256  0148  1480     E  	inc _gu8v_AbPressureFullAdcCnt[0]
 257  0149              #line 257 "d:\work\project\bintuo-f73\software\bs66f360c\Source\Function.c"
文件：Function.c   编译器版本 HGASM 0202 页次13

 257  0149  0F04        	mov a,4
 257  014A  0200     E  	sub a,_gu8v_AbPressureFullAdcCnt[0]
 257  014B  3C0A        	sz c
 257  014C  2800     R  	jmp _L28
 259  014D              #line 259 "d:\work\project\bintuo-f73\software\bs66f360c\Source\Function.c"
 259  014D  1F00     E  	clr _gu8v_AbPressureFullAdcCnt[0]
 259  014E              _L37:
 262  014E              #line 262 "d:\work\project\bintuo-f73\software\bs66f360c\Source\Function.c"
 262  014E  3000     E  	set _WorkFlag4[0].5
 262  014F  2800     R  	jmp _L28
 262  0150              _L46:
 268  0150              #line 268 "d:\work\project\bintuo-f73\software\bs66f360c\Source\Function.c"
 268  0150  1F00     E  	clr _gu8v_AbSensorPressureCnt[0]
 270  0151              #line 270 "d:\work\project\bintuo-f73\software\bs66f360c\Source\Function.c"
 270  0151  1F00     E  	clr _gu8v_AbPressureFullAdcCnt[0]
 271  0152              #line 271 "d:\work\project\bintuo-f73\software\bs66f360c\Source\Function.c"
 271  0152  1F00     E  	clr _gu8v_AbSensorLowPwmCnt[0]
 272  0153              #line 272 "d:\work\project\bintuo-f73\software\bs66f360c\Source\Function.c"
 272  0153  0700     E  	mov a,_gu8v_AbNumDisValue[0]
 272  0154  0080     E  	mov rd,a
 272  0155  1F00     E  	clr re
 272  0156  0FFB        	mov a,251
 272  0157  0300     E  	add a,_gu16v_AbSensroCmp[0]
 272  0158  0080     E  	mov rb,a
 272  0159  0FFF        	mov a,255
 272  015A  1300     E  	adc a,_gu16v_AbSensroCmp[1]
 272  015B  0080     E  	mov rc,a
 272  015C  0700     E  	mov a,rb
 272  015D  0200     E  	sub a,rd
 272  015E  0700     E  	mov a,rc
 272  015F  1200     E  	sbc a,re
 272  0160  380A        	snz c
 272  0161  2800     R  	jmp _L28
 274  0162              #line 274 "d:\work\project\bintuo-f73\software\bs66f360c\Source\Function.c"
 274  0162  1480     E  	inc _gu8v_AbPressureNoFullAdcCnt[0]
 275  0163              #line 275 "d:\work\project\bintuo-f73\software\bs66f360c\Source\Function.c"
 275  0163  0F04        	mov a,4
 275  0164  0200     E  	sub a,_gu8v_AbPressureNoFullAdcCnt[0]
 275  0165  3C0A        	sz c
 275  0166  2800     R  	jmp _L28
 277  0167              #line 277 "d:\work\project\bintuo-f73\software\bs66f360c\Source\Function.c"
 277  0167  1F00     E  	clr _gu8v_AbPressureNoFullAdcCnt[0]
 278  0168              #line 278 "d:\work\project\bintuo-f73\software\bs66f360c\Source\Function.c"
 278  0168  3400     E  	clr _WorkFlag4[0].5
 279  0169              #line 279 "d:\work\project\bintuo-f73\software\bs66f360c\Source\Function.c"
 279  0169  3400     E  	clr _WorkFlag5[0].0
 280  016A              #line 280 "d:\work\project\bintuo-f73\software\bs66f360c\Source\Function.c"
 280  016A  1F00     E  	clr _gu8v_AbFangQiTime[0]
 280  016B              _L28:
 288  016B              #line 288 "d:\work\project\bintuo-f73\software\bs66f360c\Source\Function.c"
 288  016B  1E00     E  	snz _WorkModeFlag[0]
 288  016C  2800     R  	jmp _L47
 290  016D              #line 290 "d:\work\project\bintuo-f73\software\bs66f360c\Source\Function.c"
 290  016D  3C00     E  	sz _WorkFlag5[0].6
 290  016E  2800     R  	jmp _L50
 290  016F  2800     R  	jmp _L74
 290  0170              _L47:
 303  0170              #line 303 "d:\work\project\bintuo-f73\software\bs66f360c\Source\Function.c"
 303  0170  3C00     E  	sz _WorkFlag4[0].5
 303  0171  2800     R  	jmp _L50
文件：Function.c   编译器版本 HGASM 0202 页次14

 303  0172              _L74:
 305  0172              #line 305 "d:\work\project\bintuo-f73\software\bs66f360c\Source\Function.c"
 305  0172  1F00     E  	clr _gu8v_AbPwmDelay[0]
 306  0173              #line 306 "d:\work\project\bintuo-f73\software\bs66f360c\Source\Function.c"
 306  0173  0F28        	mov a,40
 306  0174  0080     E  	mov _gu8v_AbPwmDuty[0],a
 306  0175  2800     R  	jmp _L49
 306  0176              _L50:
 310  0176              #line 310 "d:\work\project\bintuo-f73\software\bs66f360c\Source\Function.c"
 310  0176  0F1E        	mov a,30
 310  0177  0080     E  	mov _gu8v_AbPwmDelay[0],a
 311  0178              #line 311 "d:\work\project\bintuo-f73\software\bs66f360c\Source\Function.c"
 311  0178  0F05        	mov a,5
 311  0179  0080     E  	mov _gu8v_AbPwmDuty[0],a
 311  017A              _L49:
 315  017A              #line 315 "d:\work\project\bintuo-f73\software\bs66f360c\Source\Function.c"
 315  017A  0700     E  	mov a,_gu8v_AbNumDisValue[0]
 315  017B  0080     E  	mov _gu8v_AbNumDisCurrentValue[0],a
 315  017C              _L21:
 321  017C              #line 321 "d:\work\project\bintuo-f73\software\bs66f360c\Source\Function.c"
 321  017C  1E00     E  	snz _WorkModeFlag[0]
 321  017D  2800     R  	jmp _L16
 323  017E              #line 323 "d:\work\project\bintuo-f73\software\bs66f360c\Source\Function.c"
 323  017E  0700     E  	mov a,_gu16v_FunAdcZeroData[0]
 323  017F  0080     E  	mov _gu16v_FunSensroCmp[0],a
 323  0180  0700     E  	mov a,_gu16v_FunAdcZeroData[1]
 323  0181  0080     E  	mov _gu16v_FunSensroCmp[1],a
 324  0182              #line 324 "d:\work\project\bintuo-f73\software\bs66f360c\Source\Function.c"
 324  0182  3800     E  	snz _WorkFlag6[0].0
 324  0183  2800     R  	jmp _L51
 326  0184              #line 326 "d:\work\project\bintuo-f73\software\bs66f360c\Source\Function.c"
 326  0184  0F03        	mov a,3
 326  0185  0200     E  	sub a,_gu8v_PressureMode[0]
 326  0186  3C0A        	sz c
 326  0187  2800     R  	jmp _L51
 327  0188              #line 327 "d:\work\project\bintuo-f73\software\bs66f360c\Source\Function.c"
 327  0188  0F04        	mov a,4
 327  0189  0300     E  	add a,_gu8v_PressureMode[0]
 327  018A  0080     E  	mov rb,a
 327  018B  0F00        	mov a,0
 327  018C  1F00     E  	clr rc
 327  018D  1380     E  	adcm a,rc
 327  018E  0700     E  	mov a,rb  
 327  018F  0080     E  	mov _builtin_holtek_mulhi3_2[0],a  
 327  0190  0700     E  	mov a,rc  
 327  0191  0080     E  	mov _builtin_holtek_mulhi3_2[1],a
 327  0192  0700     E  	mov a,_gu16v_Fun7P5mmHgData[0]  
 327  0193  0080     E  	mov _builtin_holtek_mulhi3_2[2],a  
 327  0194  0700     E  	mov a,_gu16v_Fun7P5mmHgData[1]  
 327  0195  0080     E  	mov _builtin_holtek_mulhi3_2[3],a
 327  0196              	fcall _builtin_holtek_mulhi3
 327  019D  0700     E  	mov a,_builtin_holtek_mulhi3_2[4]  
 327  019E  0080     E  	mov rb,a  
 327  019F  0700     E  	mov a,_builtin_holtek_mulhi3_2[5]  
 327  01A0  0080     E  	mov rc,a
 327  01A1  2800     R  	jmp _L75
 327  01A2              _L51:
 331  01A2              #line 331 "d:\work\project\bintuo-f73\software\bs66f360c\Source\Function.c"
 331  01A2  0700     E  	mov a,_gu16v_Fun7P5mmHgData[0]
 331  01A3  0080     E  	mov rb,a
文件：Function.c   编译器版本 HGASM 0202 页次15

 331  01A4  0700     E  	mov a,_gu16v_Fun7P5mmHgData[1]
 331  01A5  0080     E  	mov rc,a
 331  01A6  340A        	clr c
 331  01A7  1A00     E  	rlca rb
 331  01A8  0080     E  	mov rd,a
 331  01A9  1A00     E  	rlca rc
 331  01AA  0080     E  	mov re,a
 331  01AB  0700     E  	mov a,rb
 331  01AC  0380     E  	addm a,rd
 331  01AD  0700     E  	mov a,rc
 331  01AE  1380     E  	adcm a,re
 331  01AF  340A        	clr c
 331  01B0  1A80     E  	rlc rd
 331  01B1  1A80     E  	rlc re
 331  01B2  0700     E  	mov a,rd
 331  01B3  0380     E  	addm a,rb
 331  01B4  0700     E  	mov a,re
 331  01B5  1380     E  	adcm a,rc
 331  01B6              _L75:
 331  01B6  0700     E  	mov a,rb
 331  01B7  0380     E  	addm a,_gu16v_FunSensroCmp[0]
 331  01B8  0700     E  	mov a,rc
 331  01B9  1380     E  	adcm a,_gu16v_FunSensroCmp[1]
 333  01BA              #line 333 "d:\work\project\bintuo-f73\software\bs66f360c\Source\Function.c"
 333  01BA  3C00     E  	sz _WorkFlag6[0].0
 333  01BB  2800     R  	jmp _L54
 335  01BC              #line 335 "d:\work\project\bintuo-f73\software\bs66f360c\Source\Function.c"
 335  01BC  0700     E  	mov a,_gu16v_FunAdcSensor[0]
 335  01BD  0200     E  	sub a,_gu16v_FunSensroCmp[0]
 335  01BE  0700     E  	mov a,_gu16v_FunAdcSensor[1]
 335  01BF  1200     E  	sbc a,_gu16v_FunSensroCmp[1]
 335  01C0  380A        	snz c
 335  01C1  2800     R  	jmp _L55
 337  01C2              #line 337 "d:\work\project\bintuo-f73\software\bs66f360c\Source\Function.c"
 337  01C2  1480     E  	inc _gu8v_7KpDebounce[0]
 338  01C3              #line 338 "d:\work\project\bintuo-f73\software\bs66f360c\Source\Function.c"
 338  01C3  0F04        	mov a,4
 338  01C4  0200     E  	sub a,_gu8v_7KpDebounce[0]
 338  01C5  3C0A        	sz c
 338  01C6  2800     R  	jmp _L57
 340  01C7              #line 340 "d:\work\project\bintuo-f73\software\bs66f360c\Source\Function.c"
 340  01C7  1F00     E  	clr _gu8v_7KpDebounce[0]
 341  01C8              #line 341 "d:\work\project\bintuo-f73\software\bs66f360c\Source\Function.c"
 341  01C8  1F00     E  	clr ra
 341  01C9  3C00     E  	sz _WorkFlag6[0].1
 341  01CA  3000     E  	set ra.2
 341  01CB  3400     E  	clr _WorkFlag5[0].2
 341  01CC  0700     E  	mov a,ra
 341  01CD  0580     E  	orm a,_WorkFlag5[0]
 342  01CE              #line 342 "d:\work\project\bintuo-f73\software\bs66f360c\Source\Function.c"
 342  01CE  1F00     E  	clr _gu16v_JiaoTiTimeCnt[0]
 342  01CF  1F00     E  	clr _gu16v_JiaoTiTimeCnt[1]
 343  01D0              #line 343 "d:\work\project\bintuo-f73\software\bs66f360c\Source\Function.c"
 343  01D0  3000     E  	set _WorkFlag6[0].0
 343  01D1  2800     R  	jmp _L57
 343  01D2              _L55:
 348  01D2              #line 348 "d:\work\project\bintuo-f73\software\bs66f360c\Source\Function.c"
 348  01D2  1F00     E  	clr _gu8v_7KpDebounce[0]
 348  01D3  2800     R  	jmp _L57
 348  01D4              _L54:
文件：Function.c   编译器版本 HGASM 0202 页次16

 353  01D4              #line 353 "d:\work\project\bintuo-f73\software\bs66f360c\Source\Function.c"
 353  01D4  0700     E  	mov a,_gu16v_Fun7P5mmHgData[0]
 353  01D5  0080     E  	mov rb,a
 353  01D6  0700     E  	mov a,_gu16v_Fun7P5mmHgData[1]
 353  01D7  0080     E  	mov rc,a
 353  01D8  340A        	clr c
 353  01D9  1B80     E  	rrc rc
 353  01DA  1B80     E  	rrc rb
 353  01DB  0700     E  	mov a,_gu16v_FunSensroCmp[0]
 353  01DC  0380     E  	addm a,rb
 353  01DD  0700     E  	mov a,_gu16v_FunSensroCmp[1]
 353  01DE  1380     E  	adcm a,rc
 353  01DF  0700     E  	mov a,_gu16v_FunAdcSensor[0]
 353  01E0  0200     E  	sub a,rb
 353  01E1  0700     E  	mov a,_gu16v_FunAdcSensor[1]
 353  01E2  1200     E  	sbc a,rc
 353  01E3  380A        	snz c
 353  01E4  2800     R  	jmp _L58
 355  01E5              #line 355 "d:\work\project\bintuo-f73\software\bs66f360c\Source\Function.c"
 355  01E5  1F00     E  	clr _gu8v_FunMotoOnDebounce[0]
 356  01E6              #line 356 "d:\work\project\bintuo-f73\software\bs66f360c\Source\Function.c"
 356  01E6  1480     E  	inc _gu8v_FunMotoOffDebounce[0]
 357  01E7              #line 357 "d:\work\project\bintuo-f73\software\bs66f360c\Source\Function.c"
 357  01E7  0F04        	mov a,4
 357  01E8  0200     E  	sub a,_gu8v_FunMotoOffDebounce[0]
 357  01E9  3C0A        	sz c
 357  01EA  2800     R  	jmp _L57
 359  01EB              #line 359 "d:\work\project\bintuo-f73\software\bs66f360c\Source\Function.c"
 359  01EB  1F00     E  	clr _gu8v_FunMotoOffDebounce[0]
 360  01EC              #line 360 "d:\work\project\bintuo-f73\software\bs66f360c\Source\Function.c"
 360  01EC  3000     E  	set _WorkFlag2[0].7
 360  01ED  2800     R  	jmp _L57
 360  01EE              _L58:
 365  01EE              #line 365 "d:\work\project\bintuo-f73\software\bs66f360c\Source\Function.c"
 365  01EE  1F00     E  	clr _gu8v_FunMotoOffDebounce[0]
 366  01EF              #line 366 "d:\work\project\bintuo-f73\software\bs66f360c\Source\Function.c"
 366  01EF  0700     E  	mov a,_gu16v_AbSensroCmp[0]
 366  01F0  0200     E  	sub a,_gu16v_FunAdcSensor[0]
 366  01F1  0700     E  	mov a,_gu16v_AbSensroCmp[1]
 366  01F2  1200     E  	sbc a,_gu16v_FunAdcSensor[1]
 366  01F3  380A        	snz c
 366  01F4  2800     R  	jmp _L61
 368  01F5              #line 368 "d:\work\project\bintuo-f73\software\bs66f360c\Source\Function.c"
 368  01F5  1480     E  	inc _gu8v_FunMotoOnDebounce[0]
 369  01F6              #line 369 "d:\work\project\bintuo-f73\software\bs66f360c\Source\Function.c"
 369  01F6  0F04        	mov a,4
 369  01F7  0200     E  	sub a,_gu8v_FunMotoOnDebounce[0]
 369  01F8  3C0A        	sz c
 369  01F9  2800     R  	jmp _L61
 371  01FA              #line 371 "d:\work\project\bintuo-f73\software\bs66f360c\Source\Function.c"
 371  01FA  1F00     E  	clr _gu8v_FunMotoOnDebounce[0]
 372  01FB              #line 372 "d:\work\project\bintuo-f73\software\bs66f360c\Source\Function.c"
 372  01FB  3400     E  	clr _WorkFlag2[0].7
 372  01FC              _L61:
 375  01FC              #line 375 "d:\work\project\bintuo-f73\software\bs66f360c\Source\Function.c"
 375  01FC  0700     E  	mov a,_gu16v_FunAdcSensor[0]
 375  01FD  0200     E  	sub a,_gu16v_FunSensroCmp[0]
 375  01FE  0700     E  	mov a,_gu16v_FunAdcSensor[1]
 375  01FF  1200     E  	sbc a,_gu16v_FunSensroCmp[1]
 375  0200  380A        	snz c
文件：Function.c   编译器版本 HGASM 0202 页次17

 375  0201  2800     R  	jmp _L63
 377  0202              #line 377 "d:\work\project\bintuo-f73\software\bs66f360c\Source\Function.c"
 377  0202  1F00     E  	clr _gu8v_FunPressureLowAdcCnt[0]
 378  0203              #line 378 "d:\work\project\bintuo-f73\software\bs66f360c\Source\Function.c"
 378  0203  1480     E  	inc _gu8v_FunPressureFullAdcCnt[0]
 379  0204              #line 379 "d:\work\project\bintuo-f73\software\bs66f360c\Source\Function.c"
 379  0204  0F04        	mov a,4
 379  0205  0200     E  	sub a,_gu8v_FunPressureFullAdcCnt[0]
 379  0206  3C0A        	sz c
 379  0207  2800     R  	jmp _L57
 381  0208              #line 381 "d:\work\project\bintuo-f73\software\bs66f360c\Source\Function.c"
 381  0208  1F00     E  	clr _gu8v_FunPressureFullAdcCnt[0]
 382  0209              #line 382 "d:\work\project\bintuo-f73\software\bs66f360c\Source\Function.c"
 382  0209  3000     E  	set _WorkFlag5[0].6
 382  020A  2800     R  	jmp _L57
 382  020B              _L63:
 393  020B              #line 393 "d:\work\project\bintuo-f73\software\bs66f360c\Source\Function.c"
 393  020B  1F00     E  	clr _gu8v_FunPressureFullAdcCnt[0]
 394  020C              #line 394 "d:\work\project\bintuo-f73\software\bs66f360c\Source\Function.c"
 394  020C  0700     E  	mov a,_gu16v_Fun7P5mmHgData[0]
 394  020D  0080     E  	mov rb,a
 394  020E  0700     E  	mov a,_gu16v_Fun7P5mmHgData[1]
 394  020F  0080     E  	mov rc,a
 394  0210  340A        	clr c
 394  0211  1B80     E  	rrc rc
 394  0212  1B80     E  	rrc rb
 394  0213  0700     E  	mov a,_gu16v_FunSensroCmp[0]
 394  0214  0280     E  	subm a,rb
 394  0215  0700     E  	mov a,_gu16v_FunSensroCmp[1]
 394  0216  1280     E  	sbcm a,rc
 394  0217  0700     E  	mov a,rb
 394  0218  0200     E  	sub a,_gu16v_FunAdcSensor[0]
 394  0219  0700     E  	mov a,rc
 394  021A  1200     E  	sbc a,_gu16v_FunAdcSensor[1]
 394  021B  380A        	snz c
 394  021C  2800     R  	jmp _L57
 396  021D              #line 396 "d:\work\project\bintuo-f73\software\bs66f360c\Source\Function.c"
 396  021D  1480     E  	inc _gu8v_FunPressureLowAdcCnt[0]
 397  021E              #line 397 "d:\work\project\bintuo-f73\software\bs66f360c\Source\Function.c"
 397  021E  0F04        	mov a,4
 397  021F  0200     E  	sub a,_gu8v_FunPressureLowAdcCnt[0]
 397  0220  3C0A        	sz c
 397  0221  2800     R  	jmp _L57
 399  0222              #line 399 "d:\work\project\bintuo-f73\software\bs66f360c\Source\Function.c"
 399  0222  1F00     E  	clr _gu8v_FunPressureLowAdcCnt[0]
 400  0223              #line 400 "d:\work\project\bintuo-f73\software\bs66f360c\Source\Function.c"
 400  0223  3400     E  	clr _WorkFlag5[0].6
 400  0224              _L57:
 406  0224              #line 406 "d:\work\project\bintuo-f73\software\bs66f360c\Source\Function.c"
 406  0224  3C00     E  	sz _WorkFlag5[0].6
 406  0225  2800     R  	jmp _L64
 408  0226              #line 408 "d:\work\project\bintuo-f73\software\bs66f360c\Source\Function.c"
 408  0226  1F00     E  	clr _gu8v_FunPwmDelay[0]
 409  0227              #line 409 "d:\work\project\bintuo-f73\software\bs66f360c\Source\Function.c"
 409  0227  0F28        	mov a,40
 409  0228  0080     E  	mov _gu8v_FunPwmDuty[0],a
 409  0229  2800     R  	jmp _L16
 409  022A              _L64:
 413  022A              #line 413 "d:\work\project\bintuo-f73\software\bs66f360c\Source\Function.c"
 413  022A  0F1E        	mov a,30
文件：Function.c   编译器版本 HGASM 0202 页次18

 413  022B  0080     E  	mov _gu8v_FunPwmDelay[0],a
 414  022C              #line 414 "d:\work\project\bintuo-f73\software\bs66f360c\Source\Function.c"
 414  022C  0F05        	mov a,5
 414  022D  0080     E  	mov _gu8v_FunPwmDuty[0],a
 414  022E              _L16:
 414  022E  0003        	ret
 414  022F              _FunPressure_Task endp
 414  022F              #line 414 "d:\work\project\bintuo-f73\software\bs66f360c\Source\Function.c"
 414  022F              #pragma debug scope 1 1
 414  022F              public _Fun_IrRecKeyProcess
 414  022F              #pragma debug scope 8 1
 423  022F              #line 423 "d:\work\project\bintuo-f73\software\bs66f360c\Source\Function.c"
 423  0000              _Fun_IrRecKeyProcess .section 'code'
 423  0000              _Fun_IrRecKeyProcess proc
 423  0000  00              local _Fun_IrRecKeyProcess_2 db 1 dup(?)	; 0,1
 424  0001              #line 424 "d:\work\project\bintuo-f73\software\bs66f360c\Source\Function.c"
 424  0000  3800     E  	snz _WorkFlag2[0].1
 424  0001  2800     R  	jmp _L76
 426  0002              #line 426 "d:\work\project\bintuo-f73\software\bs66f360c\Source\Function.c"
 426  0002  3400     E  	clr _WorkFlag2[0].1
 447  0003              #line 447 "d:\work\project\bintuo-f73\software\bs66f360c\Source\Function.c"
 447  0003  1080     E  	sz _gu8v_IrDelay[0]
 447  0004  2800     R  	jmp _L78
 451  0005              #line 451 "d:\work\project\bintuo-f73\software\bs66f360c\Source\Function.c"
 451  0005  0700     E  	mov a,_gu8v_WorkMode[0]
 451  0006  0A03        	sub a,3
 451  0007  390A        	snz z
 451  0008  2800     R  	jmp _L79
 453  0009              #line 453 "d:\work\project\bintuo-f73\software\bs66f360c\Source\Function.c"
 453  0009  0700     E  	mov a,_gu8v_433RecValue[2]
 453  000A  0080     R  	mov _Fun_IrRecKeyProcess_2[0],a
 453  000B  0700     R  	mov a,_Fun_IrRecKeyProcess_2[0]
 453  000C  0A10        	sub a,16
 453  000D  3D0A        	sz z
 453  000E  2800     R  	jmp _L80
 453  000F  0A10        	sub a,(32)-(16)
 453  0010  3D0A        	sz z
 453  0011  2800     R  	jmp _L81
 453  0012  0700     R  	mov a,_Fun_IrRecKeyProcess_2[0]
 453  0013  0A50        	sub a,80
 453  0014  3D0A        	sz z
 453  0015  2800     R  	jmp _L82
 453  0016  0A10        	sub a,(96)-(80)
 453  0017  3D0A        	sz z
 453  0018  2800     R  	jmp _L83
 453  0019  0700     R  	mov a,_Fun_IrRecKeyProcess_2[0]
 453  001A  0A90        	sub a,144
 453  001B  3D0A        	sz z
 453  001C  2800     R  	jmp _L84
 453  001D  0A10        	sub a,(160)-(144)
 453  001E  3D0A        	sz z
 453  001F  2800     R  	jmp _L85
 453  0020  0700     R  	mov a,_Fun_IrRecKeyProcess_2[0]
 453  0021  0AC0        	sub a,192
 453  0022  3D0A        	sz z
 453  0023  2800     R  	jmp _L86
 453  0024  0700     R  	mov a,_Fun_IrRecKeyProcess_2[0]
 453  0025  0AE0        	sub a,224
 453  0026  390A        	snz z
 453  0027  2800     R  	jmp _L79
文件：Function.c   编译器版本 HGASM 0202 页次19

 469  0028              #line 469 "d:\work\project\bintuo-f73\software\bs66f360c\Source\Function.c"
 469  0028  3000     E  	set _KeyFlag1[0].6
 470  0029              #line 470 "d:\work\project\bintuo-f73\software\bs66f360c\Source\Function.c"
 470  0029  2800     R  	jmp _L79
 470  002A              _L86:
 456  002A              #line 456 "d:\work\project\bintuo-f73\software\bs66f360c\Source\Function.c"
 456  002A  3000     E  	set _KeyFlag1[0].6
 456  002B  2800     R  	jmp _L80
 456  002C              _L81:
 460  002C              #line 460 "d:\work\project\bintuo-f73\software\bs66f360c\Source\Function.c"
 460  002C  3000     E  	set _KeyFlag1[0].2
 461  002D              #line 461 "d:\work\project\bintuo-f73\software\bs66f360c\Source\Function.c"
 461  002D  2800     R  	jmp _L79
 461  002E              _L85:
 463  002E              #line 463 "d:\work\project\bintuo-f73\software\bs66f360c\Source\Function.c"
 463  002E  3000     E  	set _KeyFlag1[0].4
 464  002F              #line 464 "d:\work\project\bintuo-f73\software\bs66f360c\Source\Function.c"
 464  002F  2800     R  	jmp _L79
 464  0030              _L83:
 466  0030              #line 466 "d:\work\project\bintuo-f73\software\bs66f360c\Source\Function.c"
 466  0030  3000     E  	set _KeyFlag1[0].3
 467  0031              #line 467 "d:\work\project\bintuo-f73\software\bs66f360c\Source\Function.c"
 467  0031  2800     R  	jmp _L79
 467  0032              _L80:
 472  0032              #line 472 "d:\work\project\bintuo-f73\software\bs66f360c\Source\Function.c"
 472  0032  3000     E  	set _KeyFlag1[0].5
 473  0033              #line 473 "d:\work\project\bintuo-f73\software\bs66f360c\Source\Function.c"
 473  0033  2800     R  	jmp _L79
 473  0034              _L84:
 475  0034              #line 475 "d:\work\project\bintuo-f73\software\bs66f360c\Source\Function.c"
 475  0034  3000     E  	set _KeyFlag3[0].0
 476  0035              #line 476 "d:\work\project\bintuo-f73\software\bs66f360c\Source\Function.c"
 476  0035  2800     R  	jmp _L79
 476  0036              _L82:
 478  0036              #line 478 "d:\work\project\bintuo-f73\software\bs66f360c\Source\Function.c"
 478  0036  3000     E  	set _KeyFlag3[0].2
 478  0037              _L79:
 487  0037              #line 487 "d:\work\project\bintuo-f73\software\bs66f360c\Source\Function.c"
 487  0037  0F03        	mov a,3
 487  0038  0080     E  	mov _gu8v_IrDelay[0],a
 487  0039              _L78:
 491  0039              #line 491 "d:\work\project\bintuo-f73\software\bs66f360c\Source\Function.c"
 491  0039  1F00     E  	clr _gu8v_433RecValue[0]
 492  003A              #line 492 "d:\work\project\bintuo-f73\software\bs66f360c\Source\Function.c"
 492  003A  1F00     E  	clr _gu8v_433RecValue[1]
 493  003B              #line 493 "d:\work\project\bintuo-f73\software\bs66f360c\Source\Function.c"
 493  003B  1F00     E  	clr _gu8v_433RecValue[2]
 493  003C              _L76:
 493  003C  0003        	ret
 493  003D              _Fun_IrRecKeyProcess endp
 493  003D              #line 493 "d:\work\project\bintuo-f73\software\bs66f360c\Source\Function.c"
 493  003D              #pragma debug scope 1 1
 493  003D              public _Fun_PowerOnMode
 493  003D              #pragma debug scope 9 1
 497  003D              #line 497 "d:\work\project\bintuo-f73\software\bs66f360c\Source\Function.c"
 497  0000              _Fun_PowerOnMode .section 'code'
 497  0000              _Fun_PowerOnMode proc
 498  0000              #line 498 "d:\work\project\bintuo-f73\software\bs66f360c\Source\Function.c"
 498  0000  0F03        	mov a,3
 498  0001  0080     E  	mov _DcfFlag1[0],a
文件：Function.c   编译器版本 HGASM 0202 页次20

 499  0002              #line 499 "d:\work\project\bintuo-f73\software\bs66f360c\Source\Function.c"
 499  0002  1080     E  	sz _gu8v_PowerOnDelay[0]
 499  0003  2800     R  	jmp _L92
 501  0004              #line 501 "d:\work\project\bintuo-f73\software\bs66f360c\Source\Function.c"
 501  0004              	fcall _Fun_InitWorkOffMode
 501  000B              _L92:
 505  000B              #line 505 "d:\work\project\bintuo-f73\software\bs66f360c\Source\Function.c"
 505  000B              	fcall _FactoryMode_Task
 505  0012  0003        	ret
 505  0013              _Fun_PowerOnMode endp
 505  0013              #line 505 "d:\work\project\bintuo-f73\software\bs66f360c\Source\Function.c"
 505  0013              #pragma debug scope 1 1
 505  0013              public _Fun_WorkOffMode
 505  0013              #pragma debug scope 10 1
 509  0013              #line 509 "d:\work\project\bintuo-f73\software\bs66f360c\Source\Function.c"
 509  0000              _Fun_WorkOffMode .section 'code'
 509  0000              _Fun_WorkOffMode proc
 510  0000              #line 510 "d:\work\project\bintuo-f73\software\bs66f360c\Source\Function.c"
 510  0000  3800     E  	snz _KeyFlag3[0].1
 510  0001  2800     R  	jmp _L94
 512  0002              #line 512 "d:\work\project\bintuo-f73\software\bs66f360c\Source\Function.c"
 512  0002  3400     E  	clr _WorkFlag3[0].5
 513  0003              #line 513 "d:\work\project\bintuo-f73\software\bs66f360c\Source\Function.c"
 513  0003  0F03        	mov a,3
 513  0004              	fcall _Beep
 514  000B              #line 514 "d:\work\project\bintuo-f73\software\bs66f360c\Source\Function.c"
 514  000B              	fcall _Fun_InitWorkOnMode
 515  0012              #line 515 "d:\work\project\bintuo-f73\software\bs66f360c\Source\Function.c"
 515  0012              	fcall _Work_StatusRegInit
 516  0019              #line 516 "d:\work\project\bintuo-f73\software\bs66f360c\Source\Function.c"
 516  0019              	fcall _Work_SensorAdcRegInit
 517  0020              #line 517 "d:\work\project\bintuo-f73\software\bs66f360c\Source\Function.c"
 517  0020              	fcall _Init_TimerReg
 518  0027              #line 518 "d:\work\project\bintuo-f73\software\bs66f360c\Source\Function.c"
 518  0027  0F02        	mov a,2
 518  0028              	fcall _Fun_GenVoicePluse
 518  002F              _L94:
 520  002F              #line 520 "d:\work\project\bintuo-f73\software\bs66f360c\Source\Function.c"
 520  002F  1F00     E  	clr _WorkModeFlag[0]
 521  0030              #line 521 "d:\work\project\bintuo-f73\software\bs66f360c\Source\Function.c"
 521  0030  0F03        	mov a,3
 521  0031  0080     E  	mov _DcfFlag1[0],a
 522  0032              #line 522 "d:\work\project\bintuo-f73\software\bs66f360c\Source\Function.c"
 522  0032  1F00     E  	clr _gu8v_AbFangQiTime[0]
 523  0033              #line 523 "d:\work\project\bintuo-f73\software\bs66f360c\Source\Function.c"
 523  0033  3400     E  	clr _WorkFlag5[0].0
 523  0034  0003        	ret
 523  0035              _Fun_WorkOffMode endp
 523  0035              #line 523 "d:\work\project\bintuo-f73\software\bs66f360c\Source\Function.c"
 523  0035              #pragma debug scope 1 1
 523  0035              public _Fun_EnterJiaotiMode
 523  0035              #pragma debug scope 11 1
 527  0035              #line 527 "d:\work\project\bintuo-f73\software\bs66f360c\Source\Function.c"
 527  0000              _Fun_EnterJiaotiMode .section 'code'
 527  0000              _Fun_EnterJiaotiMode proc
 528  0000              #line 528 "d:\work\project\bintuo-f73\software\bs66f360c\Source\Function.c"
 528  0000  1080     E  	sz _WorkModeFlag[0]
 528  0001  2800     R  	jmp _L98
 528  0002              #pragma debug scope 12 11
 528  0002              ;begin block, line: 528.-1
文件：Function.c   编译器版本 HGASM 0202 页次21

 528  0002              #pragma debug scope 13 12
 528  0002              ;begin block, line: 528.-1
 530  0002              #line 530 "d:\work\project\bintuo-f73\software\bs66f360c\Source\Function.c"
 530  0002  1F00     E  	clr _gu16v_JiaoTiTimeCnt[0]
 530  0003  1F00     E  	clr _gu16v_JiaoTiTimeCnt[1]
 531  0004              #line 531 "d:\work\project\bintuo-f73\software\bs66f360c\Source\Function.c"
 531  0004  3800     E  	snz _WorkFlag5[0].2
 531  0005  2800     R  	jmp _L98
 534  0006              #line 534 "d:\work\project\bintuo-f73\software\bs66f360c\Source\Function.c"
 534  0006  1F00     E  	clr ra
 534  0007  3C00     E  	sz _WorkFlag6[0].1
 534  0008  3000     E  	set ra.2
 534  0009  3400     E  	clr _WorkFlag5[0].2
 534  000A  0700     E  	mov a,ra
 534  000B  0580     E  	orm a,_WorkFlag5[0]
 534  000C              _L98:
 534  000C              #pragma debug scope 12 11
 534  000C              #pragma debug scope 11 1
 534  000C  0003        	ret
 534  000D              _Fun_EnterJiaotiMode endp
 534  000D              #line 534 "d:\work\project\bintuo-f73\software\bs66f360c\Source\Function.c"
 534  000D              #pragma debug scope 1 1
 534  000D              public _Fun_FirstEnterFunMode
 534  000D              #pragma debug scope 14 1
 544  000D              #line 544 "d:\work\project\bintuo-f73\software\bs66f360c\Source\Function.c"
 544  0000              _Fun_FirstEnterFunMode .section 'code'
 544  0000              _Fun_FirstEnterFunMode proc
 545  0000              #line 545 "d:\work\project\bintuo-f73\software\bs66f360c\Source\Function.c"
 545  0000  1080     E  	sz _WorkModeFlag[0]
 545  0001  2800     R  	jmp _L105
 545  0002              #pragma debug scope 15 14
 545  0002              ;begin block, line: 545.-1
 545  0002              #pragma debug scope 16 15
 545  0002              ;begin block, line: 545.-1
 548  0002              #line 548 "d:\work\project\bintuo-f73\software\bs66f360c\Source\Function.c"
 548  0002  1F00     E  	clr ra
 548  0003  3C00     E  	sz _WorkFlag5[0].2
 548  0004  1480     E  	inc ra
 548  0005  0700     E  	mov a,ra
 548  0006  0380     E  	addm a,ra
 548  0007  3400     E  	clr _WorkFlag6[0].1
 548  0008  0700     E  	mov a,ra
 548  0009  0580     E  	orm a,_WorkFlag6[0]
 549  000A              #line 549 "d:\work\project\bintuo-f73\software\bs66f360c\Source\Function.c"
 549  000A  3400     E  	clr _WorkFlag6[0].0
 550  000B              #line 550 "d:\work\project\bintuo-f73\software\bs66f360c\Source\Function.c"
 550  000B  3400     E  	clr _WorkFlag2[0].7
 551  000C              #line 551 "d:\work\project\bintuo-f73\software\bs66f360c\Source\Function.c"
 551  000C  3400     E  	clr _WorkFlag2[0].6
 551  000D              _L105:
 551  000D              #pragma debug scope 15 14
 551  000D              #pragma debug scope 14 1
 551  000D  0003        	ret
 551  000E              _Fun_FirstEnterFunMode endp
 551  000E              #line 551 "d:\work\project\bintuo-f73\software\bs66f360c\Source\Function.c"
 551  000E              #pragma debug scope 1 1
 551  000E              public _Fun_KeyPressedProcess
 551  000E              #pragma debug scope 17 1
 557  000E              #line 557 "d:\work\project\bintuo-f73\software\bs66f360c\Source\Function.c"
 557  0000              _Fun_KeyPressedProcess .section 'code'
文件：Function.c   编译器版本 HGASM 0202 页次22

 557  0000              _Fun_KeyPressedProcess proc
 558  0000              #line 558 "d:\work\project\bintuo-f73\software\bs66f360c\Source\Function.c"
 558  0000  3C00     E  	sz _WorkFlag1[0].3
 558  0001  2800     R  	jmp _L108
 560  0002              #line 560 "d:\work\project\bintuo-f73\software\bs66f360c\Source\Function.c"
 560  0002  1080     E  	sz _KeyFlag1[0]
 560  0003  2800     R  	jmp _L109
 560  0004  1E00     E  	snz _KeyFlag2[0]
 560  0005  2800     R  	jmp _L108
 560  0006              _L109:
 562  0006              #line 562 "d:\work\project\bintuo-f73\software\bs66f360c\Source\Function.c"
 562  0006  1E00     E  	snz _KeyFlag1[0]
 562  0007  2800     R  	jmp _L110
 562  0008  0F01        	mov a,1
 562  0009              	fcall _Fun_GenVoicePluse
 562  0010              _L110:
 563  0010              #line 563 "d:\work\project\bintuo-f73\software\bs66f360c\Source\Function.c"
 563  0010  1F00     E  	clr _KeyFlag1[0]
 564  0011              #line 564 "d:\work\project\bintuo-f73\software\bs66f360c\Source\Function.c"
 564  0011  1F00     E  	clr _KeyFlag2[0]
 564  0012              _L108:
 567  0012              #line 567 "d:\work\project\bintuo-f73\software\bs66f360c\Source\Function.c"
 567  0012  3800     E  	snz _KeyFlag3[0].0
 567  0013  2800     R  	jmp _L111
 569  0014              #line 569 "d:\work\project\bintuo-f73\software\bs66f360c\Source\Function.c"
 569  0014              	fcall _Init_TimerReg
 570  001B              #line 570 "d:\work\project\bintuo-f73\software\bs66f360c\Source\Function.c"
 570  001B  0F3C        	mov a,60
 570  001C  0080     E  	mov _gu8v_LockDelay60S[0],a
 571  001D              #line 571 "d:\work\project\bintuo-f73\software\bs66f360c\Source\Function.c"
 571  001D  1F00     E  	clr ra
 571  001E  3800     E  	snz _WorkFlag5[0].3
 571  001F  3000     E  	set ra.3
 571  0020  3400     E  	clr _WorkFlag5[0].3
 571  0021  0700     E  	mov a,ra
 571  0022  0580     E  	orm a,_WorkFlag5[0]
 572  0023              #line 572 "d:\work\project\bintuo-f73\software\bs66f360c\Source\Function.c"
 572  0023  3800     E  	snz _WorkFlag5[0].3
 572  0024  2800     R  	jmp _L112
 572  0025  0F13        	mov a,19
 572  0026  2800     R  	jmp _L238
 572  0027              _L112:
 573  0027              #line 573 "d:\work\project\bintuo-f73\software\bs66f360c\Source\Function.c"
 573  0027  0F14        	mov a,20
 573  0028              _L238:
 573  0028              	fcall _Fun_GenVoicePluse
 573  002F              _L111:
 575  002F              #line 575 "d:\work\project\bintuo-f73\software\bs66f360c\Source\Function.c"
 575  002F  3800     E  	snz _WorkFlag5[0].3
 575  0030  2800     R  	jmp _L113
 577  0031              #line 577 "d:\work\project\bintuo-f73\software\bs66f360c\Source\Function.c"
 577  0031  3C00     E  	sz _KeyFlag2[0].5
 577  0032  2800     R  	jmp _L114
 579  0033              #line 579 "d:\work\project\bintuo-f73\software\bs66f360c\Source\Function.c"
 579  0033  1F00     E  	clr _KeyFlag1[0]
 580  0034              #line 580 "d:\work\project\bintuo-f73\software\bs66f360c\Source\Function.c"
 580  0034  1F00     E  	clr _KeyFlag2[0]
 581  0035              #line 581 "d:\work\project\bintuo-f73\software\bs66f360c\Source\Function.c"
 581  0035  1F00     E  	clr _KeyFlag3[0]
 581  0036  2800     R  	jmp _L114
文件：Function.c   编译器版本 HGASM 0202 页次23

 581  0037              _L113:
 586  0037              #line 586 "d:\work\project\bintuo-f73\software\bs66f360c\Source\Function.c"
 586  0037  1080     E  	sz _KeyFlag1[0]
 586  0038  2800     R  	jmp _L115
 586  0039  1080     E  	sz _KeyFlag2[0]
 586  003A  2800     R  	jmp _L115
 586  003B  1E00     E  	snz _KeyFlag3[0]
 586  003C  2800     R  	jmp _L114
 586  003D              _L115:
 588  003D              #line 588 "d:\work\project\bintuo-f73\software\bs66f360c\Source\Function.c"
 588  003D  0F3C        	mov a,60
 588  003E  0080     E  	mov _gu8v_LockDelay60S[0],a
 588  003F              _L114:
 591  003F              #line 591 "d:\work\project\bintuo-f73\software\bs66f360c\Source\Function.c"
 591  003F  3800     E  	snz _KeyFlag3[0].2
 591  0040  2800     R  	jmp _L116
 593  0041              #line 593 "d:\work\project\bintuo-f73\software\bs66f360c\Source\Function.c"
 593  0041  1F00     E  	clr ra
 593  0042  3800     E  	snz _WorkFlag5[0].4
 593  0043  3000     E  	set ra.4
 593  0044  3400     E  	clr _WorkFlag5[0].4
 593  0045  0700     E  	mov a,ra
 593  0046  0580     E  	orm a,_WorkFlag5[0]
 594  0047              #line 594 "d:\work\project\bintuo-f73\software\bs66f360c\Source\Function.c"
 594  0047  3800     E  	snz _WorkFlag5[0].4
 594  0048  2800     R  	jmp _L117
 596  0049              #line 596 "d:\work\project\bintuo-f73\software\bs66f360c\Source\Function.c"
 596  0049  0F11        	mov a,17
 596  004A  2800     R  	jmp _L239
 596  004B              _L117:
 600  004B              #line 600 "d:\work\project\bintuo-f73\software\bs66f360c\Source\Function.c"
 600  004B  0F10        	mov a,16
 600  004C              _L239:
 600  004C              	fcall _Fun_GenVoicePluse
 600  0053              _L116:
 603  0053              #line 603 "d:\work\project\bintuo-f73\software\bs66f360c\Source\Function.c"
 603  0053  1E00     E  	snz _WorkModeFlag[0]
 603  0054  2800     R  	jmp _L119
 603  0055  3C00     E  	sz _WorkFlag6[0].0
 603  0056  2800     R  	jmp _L119
 605  0057              #line 605 "d:\work\project\bintuo-f73\software\bs66f360c\Source\Function.c"
 605  0057  3800     E  	snz _KeyFlag2[0].7
 605  0058  2800     R  	jmp _L121
 605  0059  3400     E  	clr _KeyFlag2[0].7
 605  005A              _L121:
 606  005A              #line 606 "d:\work\project\bintuo-f73\software\bs66f360c\Source\Function.c"
 606  005A  3800     E  	snz _KeyFlag2[0].6
 606  005B  2800     R  	jmp _L119
 606  005C  3400     E  	clr _KeyFlag2[0].6
 606  005D              _L119:
 608  005D              #line 608 "d:\work\project\bintuo-f73\software\bs66f360c\Source\Function.c"
 608  005D  3800     E  	snz _KeyFlag2[0].7
 608  005E  2800     R  	jmp _L122
 610  005F              #line 610 "d:\work\project\bintuo-f73\software\bs66f360c\Source\Function.c"
 610  005F  0F03        	mov a,3
 610  0060              	fcall _Beep
 611  0067              #line 611 "d:\work\project\bintuo-f73\software\bs66f360c\Source\Function.c"
 611  0067  0F03        	mov a,3
 611  0068  0200     E  	sub a,_gu8v_PressureMode[0]
 611  0069  380A        	snz c
文件：Function.c   编译器版本 HGASM 0202 页次24

 611  006A  2800     R  	jmp _L123
 613  006B              #line 613 "d:\work\project\bintuo-f73\software\bs66f360c\Source\Function.c"
 613  006B  1480     E  	inc _gu8v_PressureMode[0]
 613  006C              _L123:
 615  006C              #line 615 "d:\work\project\bintuo-f73\software\bs66f360c\Source\Function.c"
 615  006C  0F15        	mov a,21
 615  006D              	fcall _Fun_GenVoicePluse
 616  0074              #line 616 "d:\work\project\bintuo-f73\software\bs66f360c\Source\Function.c"
 616  0074  0F32        	mov a,50
 616  0075  0080     E  	mov _gu8v_PreKeyDownDisTime[0],a
 617  0076              #line 617 "d:\work\project\bintuo-f73\software\bs66f360c\Source\Function.c"
 617  0076              	fcall _Init_TimerReg
 617  007D              _L122:
 619  007D              #line 619 "d:\work\project\bintuo-f73\software\bs66f360c\Source\Function.c"
 619  007D  3800     E  	snz _KeyFlag2[0].6
 619  007E  2800     R  	jmp _L124
 621  007F              #line 621 "d:\work\project\bintuo-f73\software\bs66f360c\Source\Function.c"
 621  007F  0F03        	mov a,3
 621  0080              	fcall _Beep
 622  0087              #line 622 "d:\work\project\bintuo-f73\software\bs66f360c\Source\Function.c"
 622  0087  1E00     E  	snz _gu8v_PressureMode[0]
 622  0088  2800     R  	jmp _L125
 624  0089              #line 624 "d:\work\project\bintuo-f73\software\bs66f360c\Source\Function.c"
 624  0089  1580     E  	dec _gu8v_PressureMode[0]
 624  008A              _L125:
 626  008A              #line 626 "d:\work\project\bintuo-f73\software\bs66f360c\Source\Function.c"
 626  008A  0F16        	mov a,22
 626  008B              	fcall _Fun_GenVoicePluse
 627  0092              #line 627 "d:\work\project\bintuo-f73\software\bs66f360c\Source\Function.c"
 627  0092  0F32        	mov a,50
 627  0093  0080     E  	mov _gu8v_PreKeyDownDisTime[0],a
 628  0094              #line 628 "d:\work\project\bintuo-f73\software\bs66f360c\Source\Function.c"
 628  0094              	fcall _Init_TimerReg
 628  009B              _L124:
 630  009B              #line 630 "d:\work\project\bintuo-f73\software\bs66f360c\Source\Function.c"
 630  009B  3800     E  	snz _KeyFlag1[0].1
 630  009C  2800     R  	jmp _L126
 632  009D              #line 632 "d:\work\project\bintuo-f73\software\bs66f360c\Source\Function.c"
 632  009D  3800     E  	snz _WorkFlag5[0].1
 632  009E  2800     R  	jmp _L127
 634  009F              #line 634 "d:\work\project\bintuo-f73\software\bs66f360c\Source\Function.c"
 634  009F  0F03        	mov a,3
 634  00A0              	fcall _Beep
 634  00A7  2800     R  	jmp _L126
 634  00A8              _L127:
 638  00A8              #line 638 "d:\work\project\bintuo-f73\software\bs66f360c\Source\Function.c"
 638  00A8  1E00     E  	snz _WorkModeFlag[0]
 638  00A9  2800     R  	jmp _L128
 638  00AA  3C00     E  	sz _WorkFlag6[0].0
 638  00AB  2800     R  	jmp _L128
 640  00AC              #line 640 "d:\work\project\bintuo-f73\software\bs66f360c\Source\Function.c"
 640  00AC  0F1A        	mov a,26
 640  00AD              	fcall _Fun_GenVoicePluse
 640  00B4  2800     R  	jmp _L126
 640  00B5              _L128:
 644  00B5              #line 644 "d:\work\project\bintuo-f73\software\bs66f360c\Source\Function.c"
 644  00B5  3000     E  	set _WorkFlag5[0].2
 645  00B6              #line 645 "d:\work\project\bintuo-f73\software\bs66f360c\Source\Function.c"
 645  00B6  0F05        	mov a,5
 645  00B7              	fcall _Fun_GenVoicePluse
文件：Function.c   编译器版本 HGASM 0202 页次25

 646  00BE              #line 646 "d:\work\project\bintuo-f73\software\bs66f360c\Source\Function.c"
 646  00BE  0F03        	mov a,3
 646  00BF              	fcall _Beep
 647  00C6              #line 647 "d:\work\project\bintuo-f73\software\bs66f360c\Source\Function.c"
 647  00C6  1F00     E  	clr _gu8v_AbFangQiTime[0]
 648  00C7              #line 648 "d:\work\project\bintuo-f73\software\bs66f360c\Source\Function.c"
 648  00C7  3400     E  	clr _WorkFlag5[0].0
 648  00C8              _L126:
 652  00C8              #line 652 "d:\work\project\bintuo-f73\software\bs66f360c\Source\Function.c"
 652  00C8  3800     E  	snz _KeyFlag2[0].2
 652  00C9  2800     R  	jmp _L129
 652  00CA  3C00     E  	sz _WorkFlag5[0].2
 652  00CB  2800     R  	jmp _L129
 654  00CC              #line 654 "d:\work\project\bintuo-f73\software\bs66f360c\Source\Function.c"
 654  00CC  0F02        	mov a,2
 654  00CD  0080     E  	mov _gu8v_JiaoTiMode[0],a
 655  00CE              #line 655 "d:\work\project\bintuo-f73\software\bs66f360c\Source\Function.c"
 655  00CE  0FB0        	mov a,-80
 655  00CF  0080     E  	mov _gu16v_JiaoTiTime[0],a
 655  00D0  0F04        	mov a,4
 655  00D1  0080     E  	mov _gu16v_JiaoTiTime[1],a
 656  00D2              #line 656 "d:\work\project\bintuo-f73\software\bs66f360c\Source\Function.c"
 656  00D2  0F58        	mov a,88
 656  00D3  0080     E  	mov _gu16v_JiaoTiTimeCmp[0],a
 656  00D4  0F02        	mov a,2
 656  00D5  0080     E  	mov _gu16v_JiaoTiTimeCmp[1],a
 657  00D6              #line 657 "d:\work\project\bintuo-f73\software\bs66f360c\Source\Function.c"
 657  00D6  1F00     E  	clr _gu16v_JiaoTiTimeCnt[0]
 657  00D7  1F00     E  	clr _gu16v_JiaoTiTimeCnt[1]
 658  00D8              #line 658 "d:\work\project\bintuo-f73\software\bs66f360c\Source\Function.c"
 658  00D8  0F19        	mov a,25
 658  00D9              	fcall _Fun_GenVoicePluse
 658  00E0              _L129:
 660  00E0              #line 660 "d:\work\project\bintuo-f73\software\bs66f360c\Source\Function.c"
 660  00E0  3800     E  	snz _KeyFlag2[0].1
 660  00E1  2800     R  	jmp _L130
 660  00E2  3C00     E  	sz _WorkFlag5[0].2
 660  00E3  2800     R  	jmp _L130
 662  00E4              #line 662 "d:\work\project\bintuo-f73\software\bs66f360c\Source\Function.c"
 662  00E4  0F01        	mov a,1
 662  00E5  0080     E  	mov _gu8v_JiaoTiMode[0],a
 663  00E6              #line 663 "d:\work\project\bintuo-f73\software\bs66f360c\Source\Function.c"
 663  00E6  0F84        	mov a,-124
 663  00E7  0080     E  	mov _gu16v_JiaoTiTime[0],a
 663  00E8  0F03        	mov a,3
 663  00E9  0080     E  	mov _gu16v_JiaoTiTime[1],a
 664  00EA              #line 664 "d:\work\project\bintuo-f73\software\bs66f360c\Source\Function.c"
 664  00EA  0FC2        	mov a,-62
 664  00EB  0080     E  	mov _gu16v_JiaoTiTimeCmp[0],a
 664  00EC  0F01        	mov a,1
 664  00ED  0080     E  	mov _gu16v_JiaoTiTimeCmp[1],a
 665  00EE              #line 665 "d:\work\project\bintuo-f73\software\bs66f360c\Source\Function.c"
 665  00EE  1F00     E  	clr _gu16v_JiaoTiTimeCnt[0]
 665  00EF  1F00     E  	clr _gu16v_JiaoTiTimeCnt[1]
 666  00F0              #line 666 "d:\work\project\bintuo-f73\software\bs66f360c\Source\Function.c"
 666  00F0  0F18        	mov a,24
 666  00F1              	fcall _Fun_GenVoicePluse
 666  00F8              _L130:
 668  00F8              #line 668 "d:\work\project\bintuo-f73\software\bs66f360c\Source\Function.c"
 668  00F8  3800     E  	snz _KeyFlag2[0].0
文件：Function.c   编译器版本 HGASM 0202 页次26

 668  00F9  2800     R  	jmp _L131
 668  00FA  3C00     E  	sz _WorkFlag5[0].2
 668  00FB  2800     R  	jmp _L131
 670  00FC              #line 670 "d:\work\project\bintuo-f73\software\bs66f360c\Source\Function.c"
 670  00FC  1F00     E  	clr _gu8v_JiaoTiMode[0]
 671  00FD              #line 671 "d:\work\project\bintuo-f73\software\bs66f360c\Source\Function.c"
 671  00FD  0F58        	mov a,88
 671  00FE  0080     E  	mov _gu16v_JiaoTiTime[0],a
 671  00FF  0F02        	mov a,2
 671  0100  0080     E  	mov _gu16v_JiaoTiTime[1],a
 672  0101              #line 672 "d:\work\project\bintuo-f73\software\bs66f360c\Source\Function.c"
 672  0101  0F2C        	mov a,44
 672  0102  0080     E  	mov _gu16v_JiaoTiTimeCmp[0],a
 672  0103  0F01        	mov a,1
 672  0104  0080     E  	mov _gu16v_JiaoTiTimeCmp[1],a
 673  0105              #line 673 "d:\work\project\bintuo-f73\software\bs66f360c\Source\Function.c"
 673  0105  1F00     E  	clr _gu16v_JiaoTiTimeCnt[0]
 673  0106  1F00     E  	clr _gu16v_JiaoTiTimeCnt[1]
 674  0107              #line 674 "d:\work\project\bintuo-f73\software\bs66f360c\Source\Function.c"
 674  0107  0F17        	mov a,23
 674  0108              	fcall _Fun_GenVoicePluse
 674  010F              _L131:
 676  010F              #line 676 "d:\work\project\bintuo-f73\software\bs66f360c\Source\Function.c"
 676  010F  3800     E  	snz _KeyFlag1[0].2
 676  0110  2800     R  	jmp _L132
 678  0111              #line 678 "d:\work\project\bintuo-f73\software\bs66f360c\Source\Function.c"
 678  0111              	fcall _Fun_FirstEnterFunMode
 679  0118              #line 679 "d:\work\project\bintuo-f73\software\bs66f360c\Source\Function.c"
 679  0118  0700     E  	mov a,_WorkModeFlag[0]
 679  0119  0E01        	and a,1
 679  011A  0080     E  	mov ra,a
 679  011B  0F01        	mov a,1
 679  011C  0480     E  	xorm a,ra
 679  011D  3400     E  	clr _WorkModeFlag[0].0
 679  011E  0700     E  	mov a,ra
 679  011F  0580     E  	orm a,_WorkModeFlag[0]
 680  0120              #line 680 "d:\work\project\bintuo-f73\software\bs66f360c\Source\Function.c"
 680  0120  3800     E  	snz _WorkModeFlag[0].0
 680  0121  2800     R  	jmp _L133
 682  0122              #line 682 "d:\work\project\bintuo-f73\software\bs66f360c\Source\Function.c"
 682  0122  0F0E        	mov a,14
 682  0123              	fcall _Fun_GenVoicePluse
 683  012A              #line 683 "d:\work\project\bintuo-f73\software\bs66f360c\Source\Function.c"
 683  012A  3000     E  	set _WorkFlag5[0].2
 683  012B  2800     R  	jmp _L134
 683  012C              _L133:
 688  012C              #line 688 "d:\work\project\bintuo-f73\software\bs66f360c\Source\Function.c"
 688  012C  0F0F        	mov a,15
 688  012D              	fcall _Fun_GenVoicePluse
 689  0134              #line 689 "d:\work\project\bintuo-f73\software\bs66f360c\Source\Function.c"
 689  0134              	fcall _Fun_EnterJiaotiMode
 689  013B              _L134:
 691  013B              #line 691 "d:\work\project\bintuo-f73\software\bs66f360c\Source\Function.c"
 691  013B  3400     E  	clr _WorkModeFlag[0].1
 692  013C              #line 692 "d:\work\project\bintuo-f73\software\bs66f360c\Source\Function.c"
 692  013C  3400     E  	clr _WorkModeFlag[0].2
 693  013D              #line 693 "d:\work\project\bintuo-f73\software\bs66f360c\Source\Function.c"
 693  013D  3400     E  	clr _WorkModeFlag[0].3
 694  013E              #line 694 "d:\work\project\bintuo-f73\software\bs66f360c\Source\Function.c"
 694  013E  3400     E  	clr _WorkModeFlag[0].4
文件：Function.c   编译器版本 HGASM 0202 页次27

 696  013F              #line 696 "d:\work\project\bintuo-f73\software\bs66f360c\Source\Function.c"
 696  013F  1F00     E  	clr _gu16v_AutoModeCycle[0]
 696  0140  1F00     E  	clr _gu16v_AutoModeCycle[1]
 698  0141              #line 698 "d:\work\project\bintuo-f73\software\bs66f360c\Source\Function.c"
 698  0141              	fcall _Work_SensorAdcRegInit
 699  0148              #line 699 "d:\work\project\bintuo-f73\software\bs66f360c\Source\Function.c"
 699  0148  0F03        	mov a,3
 699  0149              	fcall _Beep
 699  0150              _L132:
 701  0150              #line 701 "d:\work\project\bintuo-f73\software\bs66f360c\Source\Function.c"
 701  0150  3800     E  	snz _KeyFlag1[0].6
 701  0151  2800     R  	jmp _L135
 703  0152              #line 703 "d:\work\project\bintuo-f73\software\bs66f360c\Source\Function.c"
 703  0152              	fcall _Fun_FirstEnterFunMode
 704  0159              #line 704 "d:\work\project\bintuo-f73\software\bs66f360c\Source\Function.c"
 704  0159  1F00     E  	clr ra
 704  015A  3800     E  	snz _WorkModeFlag[0].1
 704  015B  3000     E  	set ra.1
 704  015C  3400     E  	clr _WorkModeFlag[0].1
 704  015D  0700     E  	mov a,ra
 704  015E  0580     E  	orm a,_WorkModeFlag[0]
 705  015F              #line 705 "d:\work\project\bintuo-f73\software\bs66f360c\Source\Function.c"
 705  015F  3800     E  	snz _WorkModeFlag[0].1
 705  0160  2800     R  	jmp _L136
 707  0161              #line 707 "d:\work\project\bintuo-f73\software\bs66f360c\Source\Function.c"
 707  0161  0F06        	mov a,6
 707  0162              	fcall _Fun_GenVoicePluse
 708  0169              #line 708 "d:\work\project\bintuo-f73\software\bs66f360c\Source\Function.c"
 708  0169  3000     E  	set _WorkFlag5[0].2
 708  016A  2800     R  	jmp _L137
 708  016B              _L136:
 713  016B              #line 713 "d:\work\project\bintuo-f73\software\bs66f360c\Source\Function.c"
 713  016B  0F07        	mov a,7
 713  016C              	fcall _Fun_GenVoicePluse
 714  0173              #line 714 "d:\work\project\bintuo-f73\software\bs66f360c\Source\Function.c"
 714  0173              	fcall _Fun_EnterJiaotiMode
 714  017A              _L137:
 716  017A              #line 716 "d:\work\project\bintuo-f73\software\bs66f360c\Source\Function.c"
 716  017A  3400     E  	clr _WorkModeFlag[0].2
 717  017B              #line 717 "d:\work\project\bintuo-f73\software\bs66f360c\Source\Function.c"
 717  017B  3400     E  	clr _WorkModeFlag[0].3
 718  017C              #line 718 "d:\work\project\bintuo-f73\software\bs66f360c\Source\Function.c"
 718  017C  3400     E  	clr _WorkModeFlag[0].0
 719  017D              #line 719 "d:\work\project\bintuo-f73\software\bs66f360c\Source\Function.c"
 719  017D              	fcall _Work_SensorAdcRegInit
 720  0184              #line 720 "d:\work\project\bintuo-f73\software\bs66f360c\Source\Function.c"
 720  0184  0F03        	mov a,3
 720  0185              	fcall _Beep
 720  018C              _L135:
 722  018C              #line 722 "d:\work\project\bintuo-f73\software\bs66f360c\Source\Function.c"
 722  018C  3800     E  	snz _KeyFlag2[0].5
 722  018D  2800     R  	jmp _L139
 724  018E              #line 724 "d:\work\project\bintuo-f73\software\bs66f360c\Source\Function.c"
 724  018E  3800     E  	snz _WorkFlag5[0].1
 724  018F  2800     R  	jmp _L140
 726  0190              #line 726 "d:\work\project\bintuo-f73\software\bs66f360c\Source\Function.c"
 726  0190  0F03        	mov a,3
 726  0191              	fcall _Beep
 727  0198              #line 727 "d:\work\project\bintuo-f73\software\bs66f360c\Source\Function.c"
 727  0198  0F12        	mov a,18
文件：Function.c   编译器版本 HGASM 0202 页次28

 727  0199              	fcall _Fun_GenVoicePluse
 727  01A0              _L140:
 729  01A0              #line 729 "d:\work\project\bintuo-f73\software\bs66f360c\Source\Function.c"
 729  01A0  3C00     E  	sz _WorkFlag6[0].2
 729  01A1  2800     R  	jmp _L141
 729  01A2  3800     E  	snz _WorkFlag6[0].3
 729  01A3  2800     R  	jmp _L139
 729  01A4              _L141:
 731  01A4              #line 731 "d:\work\project\bintuo-f73\software\bs66f360c\Source\Function.c"
 731  01A4  3400     E  	clr _WorkFlag6[0].2
 732  01A5              #line 732 "d:\work\project\bintuo-f73\software\bs66f360c\Source\Function.c"
 732  01A5  3400     E  	clr _WorkFlag6[0].3
 734  01A6              #line 734 "d:\work\project\bintuo-f73\software\bs66f360c\Source\Function.c"
 734  01A6  1F00     E  	clr _gu16v_AbPressureLowErrTimeCnt[0]
 734  01A7  1F00     E  	clr _gu16v_AbPressureLowErrTimeCnt[1]
 735  01A8              #line 735 "d:\work\project\bintuo-f73\software\bs66f360c\Source\Function.c"
 735  01A8  1F00     E  	clr _gu16v_FunPressureLowErrTimeCnt[0]
 735  01A9  1F00     E  	clr _gu16v_FunPressureLowErrTimeCnt[1]
 737  01AA              #line 737 "d:\work\project\bintuo-f73\software\bs66f360c\Source\Function.c"
 737  01AA  0F12        	mov a,18
 737  01AB              	fcall _Fun_GenVoicePluse
 737  01B2              _L139:
 740  01B2              #line 740 "d:\work\project\bintuo-f73\software\bs66f360c\Source\Function.c"
 740  01B2  3800     E  	snz _KeyFlag1[0].4
 740  01B3  2800     R  	jmp _L143
 742  01B4              #line 742 "d:\work\project\bintuo-f73\software\bs66f360c\Source\Function.c"
 742  01B4              	fcall _Fun_FirstEnterFunMode
 743  01BB              #line 743 "d:\work\project\bintuo-f73\software\bs66f360c\Source\Function.c"
 743  01BB  1F00     E  	clr ra
 743  01BC  3800     E  	snz _WorkModeFlag[0].2
 743  01BD  3000     E  	set ra.2
 743  01BE  3400     E  	clr _WorkModeFlag[0].2
 743  01BF  0700     E  	mov a,ra
 743  01C0  0580     E  	orm a,_WorkModeFlag[0]
 744  01C1              #line 744 "d:\work\project\bintuo-f73\software\bs66f360c\Source\Function.c"
 744  01C1  3800     E  	snz _WorkModeFlag[0].2
 744  01C2  2800     R  	jmp _L144
 746  01C3              #line 746 "d:\work\project\bintuo-f73\software\bs66f360c\Source\Function.c"
 746  01C3  0F0A        	mov a,10
 746  01C4              	fcall _Fun_GenVoicePluse
 747  01CB              #line 747 "d:\work\project\bintuo-f73\software\bs66f360c\Source\Function.c"
 747  01CB  3000     E  	set _WorkFlag5[0].2
 747  01CC  2800     R  	jmp _L145
 747  01CD              _L144:
 752  01CD              #line 752 "d:\work\project\bintuo-f73\software\bs66f360c\Source\Function.c"
 752  01CD  0F0B        	mov a,11
 752  01CE              	fcall _Fun_GenVoicePluse
 753  01D5              #line 753 "d:\work\project\bintuo-f73\software\bs66f360c\Source\Function.c"
 753  01D5              	fcall _Fun_EnterJiaotiMode
 753  01DC              _L145:
 755  01DC              #line 755 "d:\work\project\bintuo-f73\software\bs66f360c\Source\Function.c"
 755  01DC  3400     E  	clr _WorkModeFlag[0].1
 756  01DD              #line 756 "d:\work\project\bintuo-f73\software\bs66f360c\Source\Function.c"
 756  01DD  3400     E  	clr _WorkModeFlag[0].3
 757  01DE              #line 757 "d:\work\project\bintuo-f73\software\bs66f360c\Source\Function.c"
 757  01DE  3400     E  	clr _WorkModeFlag[0].4
 758  01DF              #line 758 "d:\work\project\bintuo-f73\software\bs66f360c\Source\Function.c"
 758  01DF  3400     E  	clr _WorkModeFlag[0].0
 760  01E0              #line 760 "d:\work\project\bintuo-f73\software\bs66f360c\Source\Function.c"
 760  01E0              	fcall _Work_SensorAdcRegInit
文件：Function.c   编译器版本 HGASM 0202 页次29

 761  01E7              #line 761 "d:\work\project\bintuo-f73\software\bs66f360c\Source\Function.c"
 761  01E7  0F03        	mov a,3
 761  01E8              	fcall _Beep
 761  01EF              _L143:
 764  01EF              #line 764 "d:\work\project\bintuo-f73\software\bs66f360c\Source\Function.c"
 764  01EF  3800     E  	snz _KeyFlag1[0].3
 764  01F0  2800     R  	jmp _L146
 766  01F1              #line 766 "d:\work\project\bintuo-f73\software\bs66f360c\Source\Function.c"
 766  01F1              	fcall _Fun_FirstEnterFunMode
 767  01F8              #line 767 "d:\work\project\bintuo-f73\software\bs66f360c\Source\Function.c"
 767  01F8  1F00     E  	clr ra
 767  01F9  3800     E  	snz _WorkModeFlag[0].3
 767  01FA  3000     E  	set ra.3
 767  01FB  3400     E  	clr _WorkModeFlag[0].3
 767  01FC  0700     E  	mov a,ra
 767  01FD  0580     E  	orm a,_WorkModeFlag[0]
 768  01FE              #line 768 "d:\work\project\bintuo-f73\software\bs66f360c\Source\Function.c"
 768  01FE  3800     E  	snz _WorkModeFlag[0].3
 768  01FF  2800     R  	jmp _L147
 770  0200              #line 770 "d:\work\project\bintuo-f73\software\bs66f360c\Source\Function.c"
 770  0200  0F0C        	mov a,12
 770  0201              	fcall _Fun_GenVoicePluse
 771  0208              #line 771 "d:\work\project\bintuo-f73\software\bs66f360c\Source\Function.c"
 771  0208  3000     E  	set _WorkFlag5[0].2
 771  0209  2800     R  	jmp _L148
 771  020A              _L147:
 776  020A              #line 776 "d:\work\project\bintuo-f73\software\bs66f360c\Source\Function.c"
 776  020A  0F0D        	mov a,13
 776  020B              	fcall _Fun_GenVoicePluse
 777  0212              #line 777 "d:\work\project\bintuo-f73\software\bs66f360c\Source\Function.c"
 777  0212              	fcall _Fun_EnterJiaotiMode
 777  0219              _L148:
 779  0219              #line 779 "d:\work\project\bintuo-f73\software\bs66f360c\Source\Function.c"
 779  0219  3400     E  	clr _WorkModeFlag[0].1
 780  021A              #line 780 "d:\work\project\bintuo-f73\software\bs66f360c\Source\Function.c"
 780  021A  3400     E  	clr _WorkModeFlag[0].2
 781  021B              #line 781 "d:\work\project\bintuo-f73\software\bs66f360c\Source\Function.c"
 781  021B  3400     E  	clr _WorkModeFlag[0].4
 782  021C              #line 782 "d:\work\project\bintuo-f73\software\bs66f360c\Source\Function.c"
 782  021C  3400     E  	clr _WorkModeFlag[0].0
 785  021D              #line 785 "d:\work\project\bintuo-f73\software\bs66f360c\Source\Function.c"
 785  021D              	fcall _Work_SensorAdcRegInit
 786  0224              #line 786 "d:\work\project\bintuo-f73\software\bs66f360c\Source\Function.c"
 786  0224  0F03        	mov a,3
 786  0225              	fcall _Beep
 786  022C              _L146:
 788  022C              #line 788 "d:\work\project\bintuo-f73\software\bs66f360c\Source\Function.c"
 788  022C  3800     E  	snz _KeyFlag1[0].5
 788  022D  2800     R  	jmp _L149
 790  022E              #line 790 "d:\work\project\bintuo-f73\software\bs66f360c\Source\Function.c"
 790  022E              	fcall _Fun_FirstEnterFunMode
 791  0235              #line 791 "d:\work\project\bintuo-f73\software\bs66f360c\Source\Function.c"
 791  0235  1F00     E  	clr ra
 791  0236  3800     E  	snz _WorkModeFlag[0].4
 791  0237  3000     E  	set ra.4
 791  0238  3400     E  	clr _WorkModeFlag[0].4
 791  0239  0700     E  	mov a,ra
 791  023A  0580     E  	orm a,_WorkModeFlag[0]
 792  023B              #line 792 "d:\work\project\bintuo-f73\software\bs66f360c\Source\Function.c"
 792  023B  3800     E  	snz _WorkModeFlag[0].4
文件：Function.c   编译器版本 HGASM 0202 页次30

 792  023C  2800     R  	jmp _L150
 794  023D              #line 794 "d:\work\project\bintuo-f73\software\bs66f360c\Source\Function.c"
 794  023D  0F08        	mov a,8
 794  023E              	fcall _Fun_GenVoicePluse
 795  0245              #line 795 "d:\work\project\bintuo-f73\software\bs66f360c\Source\Function.c"
 795  0245  3000     E  	set _WorkFlag5[0].2
 795  0246  2800     R  	jmp _L151
 795  0247              _L150:
 800  0247              #line 800 "d:\work\project\bintuo-f73\software\bs66f360c\Source\Function.c"
 800  0247  0F09        	mov a,9
 800  0248              	fcall _Fun_GenVoicePluse
 801  024F              #line 801 "d:\work\project\bintuo-f73\software\bs66f360c\Source\Function.c"
 801  024F              	fcall _Fun_EnterJiaotiMode
 801  0256              _L151:
 803  0256              #line 803 "d:\work\project\bintuo-f73\software\bs66f360c\Source\Function.c"
 803  0256  3400     E  	clr _WorkModeFlag[0].2
 804  0257              #line 804 "d:\work\project\bintuo-f73\software\bs66f360c\Source\Function.c"
 804  0257  3400     E  	clr _WorkModeFlag[0].3
 805  0258              #line 805 "d:\work\project\bintuo-f73\software\bs66f360c\Source\Function.c"
 805  0258  3400     E  	clr _WorkModeFlag[0].0
 807  0259              #line 807 "d:\work\project\bintuo-f73\software\bs66f360c\Source\Function.c"
 807  0259              	fcall _Work_SensorAdcRegInit
 808  0260              #line 808 "d:\work\project\bintuo-f73\software\bs66f360c\Source\Function.c"
 808  0260  0F03        	mov a,3
 808  0261              	fcall _Beep
 808  0268              _L149:
 811  0268              #line 811 "d:\work\project\bintuo-f73\software\bs66f360c\Source\Function.c"
 811  0268  3800     E  	snz _KeyFlag1[0].0
 811  0269  2800     R  	jmp _L152
 813  026A              #line 813 "d:\work\project\bintuo-f73\software\bs66f360c\Source\Function.c"
 813  026A  1E00     E  	snz _WorkModeFlag[0]
 813  026B  2800     R  	jmp _L153
 813  026C  3C00     E  	sz _WorkFlag6[0].0
 813  026D  2800     R  	jmp _L153
 813  026E              _L154:
 815  026E              #line 815 "d:\work\project\bintuo-f73\software\bs66f360c\Source\Function.c"
 815  026E  0F1A        	mov a,26
 815  026F              	fcall _Fun_GenVoicePluse
 815  0276  2800     R  	jmp _L152
 815  0277              _L153:
 819  0277              #line 819 "d:\work\project\bintuo-f73\software\bs66f360c\Source\Function.c"
 819  0277  3800     E  	snz _WorkFlag1[0].3
 819  0278  2800     R  	jmp _L154
 825  0279              #line 825 "d:\work\project\bintuo-f73\software\bs66f360c\Source\Function.c"
 825  0279  3800     E  	snz _WorkFlag5[0].2
 825  027A  2800     R  	jmp _L155
 827  027B              #line 827 "d:\work\project\bintuo-f73\software\bs66f360c\Source\Function.c"
 827  027B  1F00     E  	clr _gu8v_JiaoTiMode[0]
 827  027C              _L155:
 829  027C              #line 829 "d:\work\project\bintuo-f73\software\bs66f360c\Source\Function.c"
 829  027C  0F03        	mov a,3
 829  027D              	fcall _Beep
 830  0284              #line 830 "d:\work\project\bintuo-f73\software\bs66f360c\Source\Function.c"
 830  0284  3400     E  	clr _WorkFlag5[0].2
 831  0285              #line 831 "d:\work\project\bintuo-f73\software\bs66f360c\Source\Function.c"
 831  0285  0F04        	mov a,4
 831  0286              	fcall _Fun_GenVoicePluse
 832  028D              #line 832 "d:\work\project\bintuo-f73\software\bs66f360c\Source\Function.c"
 832  028D  1F00     E  	clr _gu16v_JiaoTiTimeCnt[0]
 832  028E  1F00     E  	clr _gu16v_JiaoTiTimeCnt[1]
文件：Function.c   编译器版本 HGASM 0202 页次31

 833  028F              #line 833 "d:\work\project\bintuo-f73\software\bs66f360c\Source\Function.c"
 833  028F  1F00     E  	clr _gu8v_AbFangQiTime[0]
 834  0290              #line 834 "d:\work\project\bintuo-f73\software\bs66f360c\Source\Function.c"
 834  0290  3400     E  	clr _WorkFlag5[0].0
 834  0291              _L152:
 838  0291              #line 838 "d:\work\project\bintuo-f73\software\bs66f360c\Source\Function.c"
 838  0291  3800     E  	snz _KeyFlag3[0].1
 838  0292  2800     R  	jmp _L107
 840  0293              #line 840 "d:\work\project\bintuo-f73\software\bs66f360c\Source\Function.c"
 840  0293  3000     E  	set _WorkFlag3[0].5
 841  0294              #line 841 "d:\work\project\bintuo-f73\software\bs66f360c\Source\Function.c"
 841  0294  0F03        	mov a,3
 841  0295              	fcall _Beep
 842  029C              #line 842 "d:\work\project\bintuo-f73\software\bs66f360c\Source\Function.c"
 842  029C  0F02        	mov a,2
 842  029D  0080     E  	mov _gu8v_WorkMode[0],a
 843  029E              #line 843 "d:\work\project\bintuo-f73\software\bs66f360c\Source\Function.c"
 843  029E  0F03        	mov a,3
 843  029F              	fcall _Fun_GenVoicePluse
 843  02A6              _L107:
 843  02A6  0003        	ret
 843  02A7              _Fun_KeyPressedProcess endp
 843  02A7              #line 843 "d:\work\project\bintuo-f73\software\bs66f360c\Source\Function.c"
 843  02A7              #pragma debug scope 1 1
 843  02A7              public _Fun_JiaoTiModeProcess
 843  02A7              #pragma debug scope 18 1
 847  02A7              #line 847 "d:\work\project\bintuo-f73\software\bs66f360c\Source\Function.c"
 847  0000              _Fun_JiaoTiModeProcess .section 'code'
 847  0000              _Fun_JiaoTiModeProcess proc
 849  0000              #line 849 "d:\work\project\bintuo-f73\software\bs66f360c\Source\Function.c"
 849  0000  3C00     E  	sz _WorkFlag6[0].0
 849  0001  2800     R  	jmp _L241
 849  0002              #line 849 "d:\work\project\bintuo-f73\software\bs66f360c\Source\Function.c"
 849  0002  1080     E  	sz _WorkModeFlag[0]
 849  0003  2800     R  	jmp _L254
 849  0004              _L241:
 856  0004              #line 856 "d:\work\project\bintuo-f73\software\bs66f360c\Source\Function.c"
 856  0004  3800     E  	snz _WorkFlag5[0].2
 856  0005  2800     R  	jmp _L243
 858  0006              #line 858 "d:\work\project\bintuo-f73\software\bs66f360c\Source\Function.c"
 858  0006  1F00     E  	clr _gu16v_JiaoTiTimeCnt[0]
 858  0007  1F00     E  	clr _gu16v_JiaoTiTimeCnt[1]
 858  0008              _L254:
 859  0008              #line 859 "d:\work\project\bintuo-f73\software\bs66f360c\Source\Function.c"
 859  0008  3000     E  	set _DcfFlag1[0].0
 860  0009              #line 860 "d:\work\project\bintuo-f73\software\bs66f360c\Source\Function.c"
 860  0009  3000     E  	set _DcfFlag1[0].1
 860  000A  2800     R  	jmp _L240
 860  000B              _L243:
 864  000B              #line 864 "d:\work\project\bintuo-f73\software\bs66f360c\Source\Function.c"
 864  000B  3800     E  	snz _TimeFlag2[0].0
 864  000C  2800     R  	jmp _L240
 866  000D              #line 866 "d:\work\project\bintuo-f73\software\bs66f360c\Source\Function.c"
 866  000D  3400     E  	clr _TimeFlag2[0].0
 867  000E              #line 867 "d:\work\project\bintuo-f73\software\bs66f360c\Source\Function.c"
 867  000E  1480     E  	inc _gu16v_JiaoTiTimeCnt[0]
 867  000F  3D0A        	sz z
 867  0010  1480     E  	inc _gu16v_JiaoTiTimeCnt[1]
 869  0011              #line 869 "d:\work\project\bintuo-f73\software\bs66f360c\Source\Function.c"
 869  0011  0700     E  	mov a,_gu16v_JiaoTiTimeCnt[0]
文件：Function.c   编译器版本 HGASM 0202 页次32

 869  0012  0200     E  	sub a,_gu16v_JiaoTiTime[0]
 869  0013  0700     E  	mov a,_gu16v_JiaoTiTimeCnt[1]
 869  0014  1200     E  	sbc a,_gu16v_JiaoTiTime[1]
 869  0015  380A        	snz c
 869  0016  2800     R  	jmp _L244
 871  0017              #line 871 "d:\work\project\bintuo-f73\software\bs66f360c\Source\Function.c"
 871  0017  1F00     E  	clr _gu16v_JiaoTiTimeCnt[0]
 871  0018  1F00     E  	clr _gu16v_JiaoTiTimeCnt[1]
 871  0019              _L244:
 873  0019              #line 873 "d:\work\project\bintuo-f73\software\bs66f360c\Source\Function.c"
 873  0019  0FF6        	mov a,246
 873  001A  0300     E  	add a,_gu16v_JiaoTiTimeCmp[0]
 873  001B  0080     E  	mov rb,a
 873  001C  0FFF        	mov a,255
 873  001D  1300     E  	adc a,_gu16v_JiaoTiTimeCmp[1]
 873  001E  0080     E  	mov rc,a
 873  001F  0700     E  	mov a,rb
 873  0020  0200     E  	sub a,_gu16v_JiaoTiTimeCnt[0]
 873  0021  0700     E  	mov a,rc
 873  0022  1200     E  	sbc a,_gu16v_JiaoTiTimeCnt[1]
 873  0023  380A        	snz c
 873  0024  2800     R  	jmp _L245
 875  0025              #line 875 "d:\work\project\bintuo-f73\software\bs66f360c\Source\Function.c"
 875  0025  3000     E  	set _DcfFlag1[0].0
 875  0026  2800     R  	jmp _L256
 875  0027              _L245:
 878  0027              #line 878 "d:\work\project\bintuo-f73\software\bs66f360c\Source\Function.c"
 878  0027  0700     E  	mov a,_gu16v_JiaoTiTimeCmp[0]
 878  0028  0200     E  	sub a,_gu16v_JiaoTiTimeCnt[0]
 878  0029  0700     E  	mov a,_gu16v_JiaoTiTimeCmp[1]
 878  002A  1200     E  	sbc a,_gu16v_JiaoTiTimeCnt[1]
 878  002B  380A        	snz c
 878  002C  2800     R  	jmp _L246
 880  002D              #line 880 "d:\work\project\bintuo-f73\software\bs66f360c\Source\Function.c"
 880  002D  3400     E  	clr _DcfFlag1[0].0
 880  002E              _L256:
 881  002E              #line 881 "d:\work\project\bintuo-f73\software\bs66f360c\Source\Function.c"
 881  002E  3400     E  	clr _DcfFlag1[0].1
 881  002F  2800     R  	jmp _L240
 881  0030              _L246:
 883  0030              #line 883 "d:\work\project\bintuo-f73\software\bs66f360c\Source\Function.c"
 883  0030  0FF6        	mov a,246
 883  0031  0300     E  	add a,_gu16v_JiaoTiTime[0]
 883  0032  0080     E  	mov rb,a
 883  0033  0FFF        	mov a,255
 883  0034  1300     E  	adc a,_gu16v_JiaoTiTime[1]
 883  0035  0080     E  	mov rc,a
 883  0036  0700     E  	mov a,rb
 883  0037  0200     E  	sub a,_gu16v_JiaoTiTimeCnt[0]
 883  0038  0700     E  	mov a,rc
 883  0039  1200     E  	sbc a,_gu16v_JiaoTiTimeCnt[1]
 883  003A  380A        	snz c
 883  003B  2800     R  	jmp _L247
 885  003C              #line 885 "d:\work\project\bintuo-f73\software\bs66f360c\Source\Function.c"
 885  003C  3000     E  	set _DcfFlag1[0].1
 885  003D  2800     R  	jmp _L255
 885  003E              _L247:
 890  003E              #line 890 "d:\work\project\bintuo-f73\software\bs66f360c\Source\Function.c"
 890  003E  3400     E  	clr _DcfFlag1[0].1
 890  003F              _L255:
文件：Function.c   编译器版本 HGASM 0202 页次33

 891  003F              #line 891 "d:\work\project\bintuo-f73\software\bs66f360c\Source\Function.c"
 891  003F  3400     E  	clr _DcfFlag1[0].0
 891  0040              _L240:
 891  0040  0003        	ret
 891  0041              _Fun_JiaoTiModeProcess endp
 891  0041              #line 891 "d:\work\project\bintuo-f73\software\bs66f360c\Source\Function.c"
 891  0041              #pragma debug scope 1 1
 891  0041              public _Fun_WorkOnMode
 891  0041              #pragma debug scope 19 1
 898  0041              #line 898 "d:\work\project\bintuo-f73\software\bs66f360c\Source\Function.c"
 898  0000              _Fun_WorkOnMode .section 'code'
 898  0000              _Fun_WorkOnMode proc
 899  0000              #line 899 "d:\work\project\bintuo-f73\software\bs66f360c\Source\Function.c"
 899  0000              	fcall _Fun_KeyPressedProcess
 900  0007              #line 900 "d:\work\project\bintuo-f73\software\bs66f360c\Source\Function.c"
 900  0007  3800     E  	snz _TimeFlag1[0].5
 900  0008  2800     R  	jmp _L259
 902  0009              #line 902 "d:\work\project\bintuo-f73\software\bs66f360c\Source\Function.c"
 902  0009  3400     E  	clr _TimeFlag1[0].5
 903  000A              #line 903 "d:\work\project\bintuo-f73\software\bs66f360c\Source\Function.c"
 903  000A  3800     E  	snz _WorkModeFlag[0].0
 903  000B  2800     R  	jmp _L260
 905  000C              #line 905 "d:\work\project\bintuo-f73\software\bs66f360c\Source\Function.c"
 905  000C  1480     E  	inc _gu16v_AutoModeCycle[0]
 905  000D  3D0A        	sz z
 905  000E  1480     E  	inc _gu16v_AutoModeCycle[1]
 906  000F              #line 906 "d:\work\project\bintuo-f73\software\bs66f360c\Source\Function.c"
 906  000F  0F1F        	mov a,31
 906  0010  0200     E  	sub a,_gu16v_AutoModeCycle[0]
 906  0011  0F1C        	mov a,28
 906  0012  1200     E  	sbc a,_gu16v_AutoModeCycle[1]
 906  0013  3C0A        	sz c
 906  0014  2800     R  	jmp _L261
 908  0015              #line 908 "d:\work\project\bintuo-f73\software\bs66f360c\Source\Function.c"
 908  0015  1F00     E  	clr _gu16v_AutoModeCycle[0]
 908  0016  1F00     E  	clr _gu16v_AutoModeCycle[1]
 908  0017              _L261:
 910  0017              #line 910 "d:\work\project\bintuo-f73\software\bs66f360c\Source\Function.c"
 910  0017  0FAF        	mov a,175
 910  0018  0200     E  	sub a,_gu16v_AutoModeCycle[0]
 910  0019  0F04        	mov a,4
 910  001A  1200     E  	sbc a,_gu16v_AutoModeCycle[1]
 910  001B  380A        	snz c
 910  001C  2800     R  	jmp _L262
 912  001D              #line 912 "d:\work\project\bintuo-f73\software\bs66f360c\Source\Function.c"
 912  001D  3000     E  	set _WorkFlag2[0].2
 912  001E  2800     R  	jmp _L260
 912  001F              _L262:
 914  001F              #line 914 "d:\work\project\bintuo-f73\software\bs66f360c\Source\Function.c"
 914  001F  0F0F        	mov a,15
 914  0020  0200     E  	sub a,_gu16v_AutoModeCycle[0]
 914  0021  0F0E        	mov a,14
 914  0022  1200     E  	sbc a,_gu16v_AutoModeCycle[1]
 914  0023  380A        	snz c
 914  0024  2800     R  	jmp _L263
 916  0025              #line 916 "d:\work\project\bintuo-f73\software\bs66f360c\Source\Function.c"
 916  0025  3400     E  	clr _WorkFlag2[0].2
 916  0026  2800     R  	jmp _L260
 916  0027              _L263:
 918  0027              #line 918 "d:\work\project\bintuo-f73\software\bs66f360c\Source\Function.c"
文件：Function.c   编译器版本 HGASM 0202 页次34

 918  0027  0FBF        	mov a,191
 918  0028  0200     E  	sub a,_gu16v_AutoModeCycle[0]
 918  0029  0F12        	mov a,18
 918  002A  1200     E  	sbc a,_gu16v_AutoModeCycle[1]
 918  002B  380A        	snz c
 918  002C  2800     R  	jmp _L264
 920  002D              #line 920 "d:\work\project\bintuo-f73\software\bs66f360c\Source\Function.c"
 920  002D  3000     E  	set _WorkFlag2[0].3
 920  002E  2800     R  	jmp _L260
 920  002F              _L264:
 924  002F              #line 924 "d:\work\project\bintuo-f73\software\bs66f360c\Source\Function.c"
 924  002F  3400     E  	clr _WorkFlag2[0].3
 924  0030              _L260:
 927  0030              #line 927 "d:\work\project\bintuo-f73\software\bs66f360c\Source\Function.c"
 927  0030  3C00     E  	sz _WorkFlag6[0].2
 927  0031  2800     R  	jmp _L265
 927  0032  3800     E  	snz _WorkFlag6[0].3
 927  0033  2800     R  	jmp _L259
 927  0034              _L265:
 929  0034              #line 929 "d:\work\project\bintuo-f73\software\bs66f360c\Source\Function.c"
 929  0034  0F1A        	mov a,26
 929  0035              	fcall _Fun_GenVoicePluse
 929  003C              _L259:
 932  003C              #line 932 "d:\work\project\bintuo-f73\software\bs66f360c\Source\Function.c"
 932  003C              	fcall _Fun_JiaoTiModeProcess
 933  0043              #line 933 "d:\work\project\bintuo-f73\software\bs66f360c\Source\Function.c"
 933  0043  3C00     E  	sz _WorkModeFlag[0].0
 933  0044  2800     R  	jmp _L267
 935  0045              #line 935 "d:\work\project\bintuo-f73\software\bs66f360c\Source\Function.c"
 935  0045  3400     E  	clr _WorkFlag2[0].2
 936  0046              #line 936 "d:\work\project\bintuo-f73\software\bs66f360c\Source\Function.c"
 936  0046  3400     E  	clr _WorkFlag2[0].3
 936  0047              _L267:
 938  0047              #line 938 "d:\work\project\bintuo-f73\software\bs66f360c\Source\Function.c"
 938  0047  3800     E  	snz _WorkModeFlag[0].1
 938  0048  2800     R  	jmp _L268
 940  0049              #line 940 "d:\work\project\bintuo-f73\software\bs66f360c\Source\Function.c"
 940  0049  3000     E  	set _DcfFlag1[0].2
 940  004A  2800     R  	jmp _L269
 940  004B              _L268:
 944  004B              #line 944 "d:\work\project\bintuo-f73\software\bs66f360c\Source\Function.c"
 944  004B  3400     E  	clr _DcfFlag1[0].2
 944  004C              _L269:
 946  004C              #line 946 "d:\work\project\bintuo-f73\software\bs66f360c\Source\Function.c"
 946  004C  3C00     E  	sz _WorkModeFlag[0].2
 946  004D  2800     R  	jmp _L270
 946  004E  3800     E  	snz _WorkFlag2[0].2
 946  004F  2800     R  	jmp _L271
 946  0050              _L270:
 948  0050              #line 948 "d:\work\project\bintuo-f73\software\bs66f360c\Source\Function.c"
 948  0050  3000     E  	set _DcfFlag1[0].4
 948  0051  2800     R  	jmp _L272
 948  0052              _L271:
 952  0052              #line 952 "d:\work\project\bintuo-f73\software\bs66f360c\Source\Function.c"
 952  0052  3400     E  	clr _DcfFlag1[0].4
 952  0053              _L272:
 954  0053              #line 954 "d:\work\project\bintuo-f73\software\bs66f360c\Source\Function.c"
 954  0053  3C00     E  	sz _WorkModeFlag[0].3
 954  0054  2800     R  	jmp _L273
 954  0055  3800     E  	snz _WorkFlag2[0].3
文件：Function.c   编译器版本 HGASM 0202 页次35

 954  0056  2800     R  	jmp _L274
 954  0057              _L273:
 956  0057              #line 956 "d:\work\project\bintuo-f73\software\bs66f360c\Source\Function.c"
 956  0057  3000     E  	set _DcfFlag1[0].3
 956  0058  2800     R  	jmp _L275
 956  0059              _L274:
 960  0059              #line 960 "d:\work\project\bintuo-f73\software\bs66f360c\Source\Function.c"
 960  0059  3400     E  	clr _DcfFlag1[0].3
 960  005A              _L275:
 962  005A              #line 962 "d:\work\project\bintuo-f73\software\bs66f360c\Source\Function.c"
 962  005A  3800     E  	snz _WorkModeFlag[0].4
 962  005B  2800     R  	jmp _L276
 964  005C              #line 964 "d:\work\project\bintuo-f73\software\bs66f360c\Source\Function.c"
 964  005C  3000     E  	set _DcfFlag1[0].5
 964  005D  2800     R  	jmp _L257
 964  005E              _L276:
 968  005E              #line 968 "d:\work\project\bintuo-f73\software\bs66f360c\Source\Function.c"
 968  005E  3400     E  	clr _DcfFlag1[0].5
 968  005F              _L257:
 968  005F  0003        	ret
 968  0060              _Fun_WorkOnMode endp
 968  0060              #line 968 "d:\work\project\bintuo-f73\software\bs66f360c\Source\Function.c"
 968  0060              #pragma debug scope 1 1
 968  0060              ___pe equ [112]
 968  0060              ___pf equ [115]
 968  0060              public _Fun_IoConProcess
 968  0060              #pragma debug scope 20 1
 973  0060              #line 973 "d:\work\project\bintuo-f73\software\bs66f360c\Source\Function.c"
 973  0000              _Fun_IoConProcess .section 'code'
 973  0000              _Fun_IoConProcess proc
 974  0000              #line 974 "d:\work\project\bintuo-f73\software\bs66f360c\Source\Function.c"
 974  0000  3800     E  	snz _WorkFlag5[0].1
 974  0001  2800     R  	jmp _L285
 976  0002              #line 976 "d:\work\project\bintuo-f73\software\bs66f360c\Source\Function.c"
 976  0002  3C00     E  	sz _WorkFlag4[0].3
 976  0003  2800     R  	jmp _L288
 987  0004              #line 987 "d:\work\project\bintuo-f73\software\bs66f360c\Source\Function.c"
 987  0004  3800     E  	snz _TimeFlag1[0].6
 987  0005  2800     R  	jmp _L288
 989  0006              #line 989 "d:\work\project\bintuo-f73\software\bs66f360c\Source\Function.c"
 989  0006  3370        	set [112].6
 990  0007              #line 990 "d:\work\project\bintuo-f73\software\bs66f360c\Source\Function.c"
 990  0007  3073        	set [115].0
 991  0008              #line 991 "d:\work\project\bintuo-f73\software\bs66f360c\Source\Function.c"
 991  0008  33F0        	set [112].7
 992  0009              #line 992 "d:\work\project\bintuo-f73\software\bs66f360c\Source\Function.c"
 992  0009  31F0        	set [112].3
 993  000A              #line 993 "d:\work\project\bintuo-f73\software\bs66f360c\Source\Function.c"
 993  000A  30F3        	set [115].1
 994  000B              #line 994 "d:\work\project\bintuo-f73\software\bs66f360c\Source\Function.c"
 994  000B  3173        	set [115].2
 994  000C  2800     R  	jmp _L284
 994  000D              _L288:
 998  000D              #line 998 "d:\work\project\bintuo-f73\software\bs66f360c\Source\Function.c"
 998  000D  3770        	clr [112].6
 999  000E              #line 999 "d:\work\project\bintuo-f73\software\bs66f360c\Source\Function.c"
 999  000E  3473        	clr [115].0
1000  000F              #line 1000 "d:\work\project\bintuo-f73\software\bs66f360c\Source\Function.c"
1000  000F  37F0        	clr [112].7
1001  0010              #line 1001 "d:\work\project\bintuo-f73\software\bs66f360c\Source\Function.c"
文件：Function.c   编译器版本 HGASM 0202 页次36

1001  0010  35F0        	clr [112].3
1002  0011              #line 1002 "d:\work\project\bintuo-f73\software\bs66f360c\Source\Function.c"
1002  0011  34F3        	clr [115].1
1003  0012              #line 1003 "d:\work\project\bintuo-f73\software\bs66f360c\Source\Function.c"
1003  0012  3573        	clr [115].2
1003  0013  2800     R  	jmp _L284
1003  0014              _L285:
1009  0014              #line 1009 "d:\work\project\bintuo-f73\software\bs66f360c\Source\Function.c"
1009  0014  1E00     E  	snz _gu8v_AbFangQiTime[0]
1009  0015  2800     R  	jmp _L289
1011  0016              #line 1011 "d:\work\project\bintuo-f73\software\bs66f360c\Source\Function.c"
1011  0016  30F3        	set [115].1
1011  0017  2800     R  	jmp _L293
1011  0018              _L289:
1016  0018              #line 1016 "d:\work\project\bintuo-f73\software\bs66f360c\Source\Function.c"
1016  0018  3800     E  	snz _DcfFlag1[0].0
1016  0019  2800     R  	jmp _L291
1018  001A              #line 1018 "d:\work\project\bintuo-f73\software\bs66f360c\Source\Function.c"
1018  001A  34F3        	clr [115].1
1018  001B  2800     R  	jmp _L292
1018  001C              _L291:
1022  001C              #line 1022 "d:\work\project\bintuo-f73\software\bs66f360c\Source\Function.c"
1022  001C  30F3        	set [115].1
1022  001D              _L292:
1024  001D              #line 1024 "d:\work\project\bintuo-f73\software\bs66f360c\Source\Function.c"
1024  001D  3800     E  	snz _DcfFlag1[0].1
1024  001E  2800     R  	jmp _L293
1026  001F              #line 1026 "d:\work\project\bintuo-f73\software\bs66f360c\Source\Function.c"
1026  001F  3573        	clr [115].2
1026  0020  2800     R  	jmp _L290
1026  0021              _L293:
1030  0021              #line 1030 "d:\work\project\bintuo-f73\software\bs66f360c\Source\Function.c"
1030  0021  3173        	set [115].2
1030  0022              _L290:
1033  0022              #line 1033 "d:\work\project\bintuo-f73\software\bs66f360c\Source\Function.c"
1033  0022  3800     E  	snz _DcfFlag1[0].2
1033  0023  2800     R  	jmp _L294
1033  0024  3370        	set [112].6
1033  0025  2800     R  	jmp _L295
1033  0026              _L294:
1034  0026              #line 1034 "d:\work\project\bintuo-f73\software\bs66f360c\Source\Function.c"
1034  0026  3770        	clr [112].6
1034  0027              _L295:
1035  0027              #line 1035 "d:\work\project\bintuo-f73\software\bs66f360c\Source\Function.c"
1035  0027  3800     E  	snz _DcfFlag1[0].3
1035  0028  2800     R  	jmp _L296
1035  0029  3073        	set [115].0
1035  002A  2800     R  	jmp _L297
1035  002B              _L296:
1036  002B              #line 1036 "d:\work\project\bintuo-f73\software\bs66f360c\Source\Function.c"
1036  002B  3473        	clr [115].0
1036  002C              _L297:
1037  002C              #line 1037 "d:\work\project\bintuo-f73\software\bs66f360c\Source\Function.c"
1037  002C  3800     E  	snz _DcfFlag1[0].4
1037  002D  2800     R  	jmp _L298
1037  002E  33F0        	set [112].7
1037  002F  2800     R  	jmp _L299
1037  0030              _L298:
1038  0030              #line 1038 "d:\work\project\bintuo-f73\software\bs66f360c\Source\Function.c"
1038  0030  37F0        	clr [112].7
文件：Function.c   编译器版本 HGASM 0202 页次37

1038  0031              _L299:
1039  0031              #line 1039 "d:\work\project\bintuo-f73\software\bs66f360c\Source\Function.c"
1039  0031  3800     E  	snz _DcfFlag1[0].5
1039  0032  2800     R  	jmp _L300
1039  0033  31F0        	set [112].3
1039  0034  2800     R  	jmp _L284
1039  0035              _L300:
1040  0035              #line 1040 "d:\work\project\bintuo-f73\software\bs66f360c\Source\Function.c"
1040  0035  35F0        	clr [112].3
1040  0036              _L284:
1040  0036  0003        	ret
1040  0037              _Fun_IoConProcess endp
1040  0037              #line 1040 "d:\work\project\bintuo-f73\software\bs66f360c\Source\Function.c"
1040  0037              #pragma debug scope 1 1
1040  0037              public _Fun_PublicProcess
1040  0037              #pragma debug scope 21 1
1045  0037              #line 1045 "d:\work\project\bintuo-f73\software\bs66f360c\Source\Function.c"
1045  0000              _Fun_PublicProcess .section 'code'
1045  0000              _Fun_PublicProcess proc
1046  0000              #line 1046 "d:\work\project\bintuo-f73\software\bs66f360c\Source\Function.c"
1046  0000  1F00     E  	clr _KeyFlag1[0]
1047  0001              #line 1047 "d:\work\project\bintuo-f73\software\bs66f360c\Source\Function.c"
1047  0001  1F00     E  	clr _KeyFlag2[0]
1048  0002              #line 1048 "d:\work\project\bintuo-f73\software\bs66f360c\Source\Function.c"
1048  0002  1F00     E  	clr _KeyFlag3[0]
1050  0003              #line 1050 "d:\work\project\bintuo-f73\software\bs66f360c\Source\Function.c"
1050  0003  3800     E  	snz _TimeFlag1[0].7
1050  0004  2800     R  	jmp _L301
1052  0005              #line 1052 "d:\work\project\bintuo-f73\software\bs66f360c\Source\Function.c"
1052  0005  3400     E  	clr _TimeFlag1[0].7
1053  0006              #line 1053 "d:\work\project\bintuo-f73\software\bs66f360c\Source\Function.c"
1053  0006  3800     E  	snz _WorkFlag3[0].6
1053  0007  2800     R  	jmp _L305
1055  0008              #line 1055 "d:\work\project\bintuo-f73\software\bs66f360c\Source\Function.c"
1055  0008  0700     E  	mov a,_gu16v_IdData[0]
1055  0009  0080     E  	mov _EEPROM_WriteBytes_2[0],a
1055  000A  0700     E  	mov a,_gu16v_IdData[1]
1055  000B  0080     E  	mov _EEPROM_WriteBytes_2[1],a
1055  000C  0F40        	mov a,64
1055  000D              	fcall _EEPROM_WriteBytes
1055  0014  0080     E  	mov ra,a
1055  0015  1E00     E  	snz ra
1055  0016  2800     R  	jmp _L305
1057  0017              #line 1057 "d:\work\project\bintuo-f73\software\bs66f360c\Source\Function.c"
1057  0017  0700     E  	mov a,_gu16v_IdData[0]
1057  0018  0080     E  	mov _EEPROM_WriteBytes_2[0],a
1057  0019  0700     E  	mov a,_gu16v_IdData[1]
1057  001A  0080     E  	mov _EEPROM_WriteBytes_2[1],a
1057  001B  0F43        	mov a,67
1057  001C              	fcall _EEPROM_WriteBytes
1057  0023  0080     E  	mov ra,a
1057  0024  1E00     E  	snz ra
1057  0025  2800     R  	jmp _L305
1059  0026              #line 1059 "d:\work\project\bintuo-f73\software\bs66f360c\Source\Function.c"
1059  0026  3400     E  	clr _WorkFlag3[0].6
1060  0027              #line 1060 "d:\work\project\bintuo-f73\software\bs66f360c\Source\Function.c"
1060  0027  0F04        	mov a,4
1060  0028              	fcall _Beep
1060  002F              _L305:
1064  002F              #line 1064 "d:\work\project\bintuo-f73\software\bs66f360c\Source\Function.c"
文件：Function.c   编译器版本 HGASM 0202 页次38

1064  002F  3800     E  	snz _WorkFlag4[0].6
1064  0030  2800     R  	jmp _L308
1066  0031              #line 1066 "d:\work\project\bintuo-f73\software\bs66f360c\Source\Function.c"
1066  0031  0700     E  	mov a,_gu16v_Ab150CalDataEeCopy[0]
1066  0032  0080     E  	mov _EEPROM_WriteBytes_2[0],a
1066  0033  0700     E  	mov a,_gu16v_Ab150CalDataEeCopy[1]
1066  0034  0080     E  	mov _EEPROM_WriteBytes_2[1],a
1066  0035  0F10        	mov a,16
1066  0036              	fcall _EEPROM_WriteBytes
1066  003D  0080     E  	mov ra,a
1066  003E  1E00     E  	snz ra
1066  003F  2800     R  	jmp _L308
1068  0040              #line 1068 "d:\work\project\bintuo-f73\software\bs66f360c\Source\Function.c"
1068  0040  0700     E  	mov a,_gu16v_Ab150CalDataEeCopy[0]
1068  0041  0080     E  	mov _EEPROM_WriteBytes_2[0],a
1068  0042  0700     E  	mov a,_gu16v_Ab150CalDataEeCopy[1]
1068  0043  0080     E  	mov _EEPROM_WriteBytes_2[1],a
1068  0044  0F13        	mov a,19
1068  0045              	fcall _EEPROM_WriteBytes
1068  004C  0080     E  	mov ra,a
1068  004D  1E00     E  	snz ra
1068  004E  2800     R  	jmp _L308
1070  004F              #line 1070 "d:\work\project\bintuo-f73\software\bs66f360c\Source\Function.c"
1070  004F  0700     E  	mov a,_gu16v_Fun150CalDataEeCopy[0]
1070  0050  0080     E  	mov _EEPROM_WriteBytes_2[0],a
1070  0051  0700     E  	mov a,_gu16v_Fun150CalDataEeCopy[1]
1070  0052  0080     E  	mov _EEPROM_WriteBytes_2[1],a
1070  0053  0F16        	mov a,22
1070  0054              	fcall _EEPROM_WriteBytes
1070  005B  0080     E  	mov ra,a
1070  005C  1E00     E  	snz ra
1070  005D  2800     R  	jmp _L308
1072  005E              #line 1072 "d:\work\project\bintuo-f73\software\bs66f360c\Source\Function.c"
1072  005E  0700     E  	mov a,_gu16v_Fun150CalDataEeCopy[0]
1072  005F  0080     E  	mov _EEPROM_WriteBytes_2[0],a
1072  0060  0700     E  	mov a,_gu16v_Fun150CalDataEeCopy[1]
1072  0061  0080     E  	mov _EEPROM_WriteBytes_2[1],a
1072  0062  0F19        	mov a,25
1072  0063              	fcall _EEPROM_WriteBytes
1072  006A  0080     E  	mov ra,a
1072  006B  1E00     E  	snz ra
1072  006C  2800     R  	jmp _L308
1074  006D              #line 1074 "d:\work\project\bintuo-f73\software\bs66f360c\Source\Function.c"
1074  006D  3400     E  	clr _WorkFlag4[0].6
1075  006E              #line 1075 "d:\work\project\bintuo-f73\software\bs66f360c\Source\Function.c"
1075  006E  0F03        	mov a,3
1075  006F  0080     E  	mov _gu8v_CalModeIndex[0],a
1076  0070              #line 1076 "d:\work\project\bintuo-f73\software\bs66f360c\Source\Function.c"
1076  0070  0700     E  	mov a,_gu16v_Ab150CalDataEe[0]
1076  0071  0200     E  	sub a,_gu16v_AbAdcZeroData[0]
1076  0072  0080     E  	mov rd,a
1076  0073  0700     E  	mov a,_gu16v_Ab150CalDataEe[1]
1076  0074  1200     E  	sbc a,_gu16v_AbAdcZeroData[1]
1076  0075  0080     E  	mov re,a
1076  0076  1F00     E  	clr _builtin_holtek_udivmodhi4_2[6]
1076  0077  0700     E  	mov a,rd  
1076  0078  0080     E  	mov _builtin_holtek_udivmodhi4_2[0],a  
1076  0079  0700     E  	mov a,re  
1076  007A  0080     E  	mov _builtin_holtek_udivmodhi4_2[1],a
1076  007B  0F14        	mov a,20  
文件：Function.c   编译器版本 HGASM 0202 页次39

1076  007C  0080     E  	mov _builtin_holtek_udivmodhi4_2[2],a  
1076  007D  1F00     E  	clr _builtin_holtek_udivmodhi4_2[3]
1076  007E              	fcall _builtin_holtek_udivmodhi4
1076  0085  0700     E  	mov a,_builtin_holtek_udivmodhi4_2[0]  
1076  0086  0080     E  	mov _gu16v_Ab7P5mmHgData[0],a  
1076  0087  0700     E  	mov a,_builtin_holtek_udivmodhi4_2[1]  
1076  0088  0080     E  	mov _gu16v_Ab7P5mmHgData[1],a
1077  0089              #line 1077 "d:\work\project\bintuo-f73\software\bs66f360c\Source\Function.c"
1077  0089  0700     E  	mov a,_gu16v_Fun150CalDataEe[0]
1077  008A  0200     E  	sub a,_gu16v_FunAdcZeroData[0]
1077  008B  0080     E  	mov rd,a
1077  008C  0700     E  	mov a,_gu16v_Fun150CalDataEe[1]
1077  008D  1200     E  	sbc a,_gu16v_FunAdcZeroData[1]
1077  008E  0080     E  	mov re,a
1077  008F  1F00     E  	clr _builtin_holtek_udivmodhi4_2[6]
1077  0090  0700     E  	mov a,rd  
1077  0091  0080     E  	mov _builtin_holtek_udivmodhi4_2[0],a  
1077  0092  0700     E  	mov a,re  
1077  0093  0080     E  	mov _builtin_holtek_udivmodhi4_2[1],a
1077  0094  0F14        	mov a,20  
1077  0095  0080     E  	mov _builtin_holtek_udivmodhi4_2[2],a  
1077  0096  1F00     E  	clr _builtin_holtek_udivmodhi4_2[3]
1077  0097              	fcall _builtin_holtek_udivmodhi4
1077  009E  0700     E  	mov a,_builtin_holtek_udivmodhi4_2[0]  
1077  009F  0080     E  	mov _gu16v_Fun7P5mmHgData[0],a  
1077  00A0  0700     E  	mov a,_builtin_holtek_udivmodhi4_2[1]  
1077  00A1  0080     E  	mov _gu16v_Fun7P5mmHgData[1],a
1078  00A2              #line 1078 "d:\work\project\bintuo-f73\software\bs66f360c\Source\Function.c"
1078  00A2  0F03        	mov a,3
1078  00A3              	fcall _Beep
1078  00AA              _L308:
1084  00AA              #line 1084 "d:\work\project\bintuo-f73\software\bs66f360c\Source\Function.c"
1084  00AA  3800     E  	snz _WorkFlag4[0].2
1084  00AB  2800     R  	jmp _L311
1086  00AC              #line 1086 "d:\work\project\bintuo-f73\software\bs66f360c\Source\Function.c"
1086  00AC  0700     E  	mov a,_gu16v_AbAdcZeroData[0]
1086  00AD  0080     E  	mov _EEPROM_WriteBytes_2[0],a
1086  00AE  0700     E  	mov a,_gu16v_AbAdcZeroData[1]
1086  00AF  0080     E  	mov _EEPROM_WriteBytes_2[1],a
1086  00B0  0F28        	mov a,40
1086  00B1              	fcall _EEPROM_WriteBytes
1086  00B8  0080     E  	mov ra,a
1086  00B9  1E00     E  	snz ra
1086  00BA  2800     R  	jmp _L311
1088  00BB              #line 1088 "d:\work\project\bintuo-f73\software\bs66f360c\Source\Function.c"
1088  00BB  0700     E  	mov a,_gu16v_AbAdcZeroData[0]
1088  00BC  0080     E  	mov _EEPROM_WriteBytes_2[0],a
1088  00BD  0700     E  	mov a,_gu16v_AbAdcZeroData[1]
1088  00BE  0080     E  	mov _EEPROM_WriteBytes_2[1],a
1088  00BF  0F2B        	mov a,43
1088  00C0              	fcall _EEPROM_WriteBytes
1088  00C7  0080     E  	mov ra,a
1088  00C8  1E00     E  	snz ra
1088  00C9  2800     R  	jmp _L311
1090  00CA              #line 1090 "d:\work\project\bintuo-f73\software\bs66f360c\Source\Function.c"
1090  00CA  0700     E  	mov a,_gu16v_FunAdcZeroData[0]
1090  00CB  0080     E  	mov _EEPROM_WriteBytes_2[0],a
1090  00CC  0700     E  	mov a,_gu16v_FunAdcZeroData[1]
1090  00CD  0080     E  	mov _EEPROM_WriteBytes_2[1],a
1090  00CE  0F30        	mov a,48
文件：Function.c   编译器版本 HGASM 0202 页次40

1090  00CF              	fcall _EEPROM_WriteBytes
1090  00D6  0080     E  	mov ra,a
1090  00D7  1E00     E  	snz ra
1090  00D8  2800     R  	jmp _L311
1092  00D9              #line 1092 "d:\work\project\bintuo-f73\software\bs66f360c\Source\Function.c"
1092  00D9  0700     E  	mov a,_gu16v_FunAdcZeroData[0]
1092  00DA  0080     E  	mov _EEPROM_WriteBytes_2[0],a
1092  00DB  0700     E  	mov a,_gu16v_FunAdcZeroData[1]
1092  00DC  0080     E  	mov _EEPROM_WriteBytes_2[1],a
1092  00DD  0F33        	mov a,51
1092  00DE              	fcall _EEPROM_WriteBytes
1092  00E5  0080     E  	mov ra,a
1092  00E6  1E00     E  	snz ra
1092  00E7  2800     R  	jmp _L311
1094  00E8              #line 1094 "d:\work\project\bintuo-f73\software\bs66f360c\Source\Function.c"
1094  00E8  3400     E  	clr _WorkFlag4[0].2
1094  00E9              _L311:
1100  00E9              #line 1100 "d:\work\project\bintuo-f73\software\bs66f360c\Source\Function.c"
1100  00E9  0F0A        	mov a,10
1100  00EA  0200     E  	sub a,_gu8v_PowerOnDelay[0]
1100  00EB  380A        	snz c
1100  00EC  2800     R  	jmp _L301
1102  00ED              #line 1102 "d:\work\project\bintuo-f73\software\bs66f360c\Source\Function.c"
1102  00ED  3800     E  	snz _WorkFlag4[0].7
1102  00EE  2800     R  	jmp _L301
1104  00EF              #line 1104 "d:\work\project\bintuo-f73\software\bs66f360c\Source\Function.c"
1104  00EF  0F28        	mov a,40
1104  00F0              	fcall _EEPROM_ReadBytes
1104  00F7  0080     E  	mov ra,a
1104  00F8  1E00     E  	snz ra
1104  00F9  2800     R  	jmp _L301
1106  00FA              #line 1106 "d:\work\project\bintuo-f73\software\bs66f360c\Source\Function.c"
1106  00FA  0700     E  	mov a,_gu16v_EeTemp[0]
1106  00FB  0080     E  	mov _gu16v_AbAdcZeroData[0],a
1106  00FC  0700     E  	mov a,_gu16v_EeTemp[1]
1106  00FD  0080     E  	mov _gu16v_AbAdcZeroData[1],a
1107  00FE              #line 1107 "d:\work\project\bintuo-f73\software\bs66f360c\Source\Function.c"
1107  00FE  0F10        	mov a,16
1107  00FF              	fcall _EEPROM_ReadBytes
1107  0106  0080     E  	mov ra,a
1107  0107  1E00     E  	snz ra
1107  0108  2800     R  	jmp _L301
1109  0109              #line 1109 "d:\work\project\bintuo-f73\software\bs66f360c\Source\Function.c"
1109  0109  0700     E  	mov a,_gu16v_EeTemp[0]
1109  010A  0080     E  	mov _gu16v_Ab150CalDataEe[0],a
1109  010B  0700     E  	mov a,_gu16v_EeTemp[1]
1109  010C  0080     E  	mov _gu16v_Ab150CalDataEe[1],a
1111  010D              #line 1111 "d:\work\project\bintuo-f73\software\bs66f360c\Source\Function.c"
1111  010D  0F30        	mov a,48
1111  010E              	fcall _EEPROM_ReadBytes
1111  0115  0080     E  	mov ra,a
1111  0116  1E00     E  	snz ra
1111  0117  2800     R  	jmp _L301
1113  0118              #line 1113 "d:\work\project\bintuo-f73\software\bs66f360c\Source\Function.c"
1113  0118  0700     E  	mov a,_gu16v_EeTemp[0]
1113  0119  0080     E  	mov _gu16v_FunAdcZeroData[0],a
1113  011A  0700     E  	mov a,_gu16v_EeTemp[1]
1113  011B  0080     E  	mov _gu16v_FunAdcZeroData[1],a
1114  011C              #line 1114 "d:\work\project\bintuo-f73\software\bs66f360c\Source\Function.c"
1114  011C  0F16        	mov a,22
文件：Function.c   编译器版本 HGASM 0202 页次41

1114  011D              	fcall _EEPROM_ReadBytes
1114  0124  0080     E  	mov ra,a
1114  0125  1E00     E  	snz ra
1114  0126  2800     R  	jmp _L301
1116  0127              #line 1116 "d:\work\project\bintuo-f73\software\bs66f360c\Source\Function.c"
1116  0127  0700     E  	mov a,_gu16v_EeTemp[0]
1116  0128  0080     E  	mov _gu16v_Fun150CalDataEe[0],a
1116  0129  0700     E  	mov a,_gu16v_EeTemp[1]
1116  012A  0080     E  	mov _gu16v_Fun150CalDataEe[1],a
1117  012B              #line 1117 "d:\work\project\bintuo-f73\software\bs66f360c\Source\Function.c"
1117  012B  0700     E  	mov a,_gu16v_Ab150CalDataEe[0]
1117  012C  0200     E  	sub a,_gu16v_AbAdcZeroData[0]
1117  012D  0080     E  	mov rd,a
1117  012E  0700     E  	mov a,_gu16v_Ab150CalDataEe[1]
1117  012F  1200     E  	sbc a,_gu16v_AbAdcZeroData[1]
1117  0130  0080     E  	mov re,a
1117  0131  1F00     E  	clr _builtin_holtek_udivmodhi4_2[6]
1117  0132  0700     E  	mov a,rd  
1117  0133  0080     E  	mov _builtin_holtek_udivmodhi4_2[0],a  
1117  0134  0700     E  	mov a,re  
1117  0135  0080     E  	mov _builtin_holtek_udivmodhi4_2[1],a
1117  0136  0F14        	mov a,20  
1117  0137  0080     E  	mov _builtin_holtek_udivmodhi4_2[2],a  
1117  0138  1F00     E  	clr _builtin_holtek_udivmodhi4_2[3]
1117  0139              	fcall _builtin_holtek_udivmodhi4
1117  0140  0700     E  	mov a,_builtin_holtek_udivmodhi4_2[0]  
1117  0141  0080     E  	mov _gu16v_Ab7P5mmHgData[0],a  
1117  0142  0700     E  	mov a,_builtin_holtek_udivmodhi4_2[1]  
1117  0143  0080     E  	mov _gu16v_Ab7P5mmHgData[1],a
1118  0144              #line 1118 "d:\work\project\bintuo-f73\software\bs66f360c\Source\Function.c"
1118  0144  0700     E  	mov a,_gu16v_Fun150CalDataEe[0]
1118  0145  0200     E  	sub a,_gu16v_FunAdcZeroData[0]
1118  0146  0080     E  	mov rd,a
1118  0147  0700     E  	mov a,_gu16v_Fun150CalDataEe[1]
1118  0148  1200     E  	sbc a,_gu16v_FunAdcZeroData[1]
1118  0149  0080     E  	mov re,a
1118  014A  1F00     E  	clr _builtin_holtek_udivmodhi4_2[6]
1118  014B  0700     E  	mov a,rd  
1118  014C  0080     E  	mov _builtin_holtek_udivmodhi4_2[0],a  
1118  014D  0700     E  	mov a,re  
1118  014E  0080     E  	mov _builtin_holtek_udivmodhi4_2[1],a
1118  014F  0F14        	mov a,20  
1118  0150  0080     E  	mov _builtin_holtek_udivmodhi4_2[2],a  
1118  0151  1F00     E  	clr _builtin_holtek_udivmodhi4_2[3]
1118  0152              	fcall _builtin_holtek_udivmodhi4
1118  0159  0700     E  	mov a,_builtin_holtek_udivmodhi4_2[0]  
1118  015A  0080     E  	mov _gu16v_Fun7P5mmHgData[0],a  
1118  015B  0700     E  	mov a,_builtin_holtek_udivmodhi4_2[1]  
1118  015C  0080     E  	mov _gu16v_Fun7P5mmHgData[1],a
1119  015D              #line 1119 "d:\work\project\bintuo-f73\software\bs66f360c\Source\Function.c"
1119  015D  0F40        	mov a,64
1119  015E              	fcall _EEPROM_ReadBytes
1119  0165  0080     E  	mov ra,a
1119  0166  1E00     E  	snz ra
1119  0167  2800     R  	jmp _L301
1121  0168              #line 1121 "d:\work\project\bintuo-f73\software\bs66f360c\Source\Function.c"
1121  0168  0700     E  	mov a,_gu16v_EeTemp[0]
1121  0169  0080     E  	mov _gu16v_IdData[0],a
1121  016A  0700     E  	mov a,_gu16v_EeTemp[1]
1121  016B  0080     E  	mov _gu16v_IdData[1],a
文件：Function.c   编译器版本 HGASM 0202 页次42

1122  016C              #line 1122 "d:\work\project\bintuo-f73\software\bs66f360c\Source\Function.c"
1122  016C  3400     E  	clr _WorkFlag4[0].7
1122  016D              _L301:
1122  016D  0003        	ret
1122  016E              _Fun_PublicProcess endp
1122  016E              #line 1122 "d:\work\project\bintuo-f73\software\bs66f360c\Source\Function.c"
1122  016E              #pragma debug scope 1 1
1122  016E              public _Function_Task
1122  016E              #pragma debug scope 22 1
1138  016E              #line 1138 "d:\work\project\bintuo-f73\software\bs66f360c\Source\Function.c"
1138  0000              _Function_Task .section 'code'
1138  0000              _Function_Task proc
1138  0000  00              local _Function_Task_2 db 1 dup(?)	; 0,1
1139  0001              #line 1139 "d:\work\project\bintuo-f73\software\bs66f360c\Source\Function.c"
1139  0000              	fcall _Fun_IrRecKeyProcess
1140  0007              #line 1140 "d:\work\project\bintuo-f73\software\bs66f360c\Source\Function.c"
1140  0007  0700     E  	mov a,_gu8v_WorkMode[0]
1140  0008  0080     R  	mov _Function_Task_2[0],a
1140  0009  0700     R  	mov a,_Function_Task_2[0]
1140  000A  0A01        	sub a,1
1140  000B  3D0A        	sz z
1140  000C  2800     R  	jmp _L364
1140  000D  0A01        	sub a,(2)-(1)
1140  000E  3D0A        	sz z
1140  000F  2800     R  	jmp _L365
1140  0010              #line 1140 "d:\work\project\bintuo-f73\software\bs66f360c\Source\Function.c"
1140  0010  0700     R  	mov a,_Function_Task_2[0]
1140  0011  0A03        	sub a,3
1140  0012  390A        	snz z
1140  0013  2800     R  	jmp _L363
1149  0014              #line 1149 "d:\work\project\bintuo-f73\software\bs66f360c\Source\Function.c"
1149  0014              	fcall _Fun_WorkOnMode
1150  001B              #line 1150 "d:\work\project\bintuo-f73\software\bs66f360c\Source\Function.c"
1150  001B  2800     R  	jmp _L363
1150  001C              _L364:
1143  001C              #line 1143 "d:\work\project\bintuo-f73\software\bs66f360c\Source\Function.c"
1143  001C              	fcall _Fun_PowerOnMode
1144  0023              #line 1144 "d:\work\project\bintuo-f73\software\bs66f360c\Source\Function.c"
1144  0023  2800     R  	jmp _L363
1144  0024              _L365:
1146  0024              #line 1146 "d:\work\project\bintuo-f73\software\bs66f360c\Source\Function.c"
1146  0024              	fcall _Fun_WorkOffMode
1146  002B              _L363:
1152  002B              #line 1152 "d:\work\project\bintuo-f73\software\bs66f360c\Source\Function.c"
1152  002B              	fcall _Fun_PublicProcess
1152  0032  0003        	ret
1152  0033              _Function_Task endp
1152  0033              #line 1152 "d:\work\project\bintuo-f73\software\bs66f360c\Source\Function.c"
1152  0033              #pragma debug scope 1 1
1152  0033              #pragma debug struct_end
1152  0033              #pragma debug struct_end
1152  0033              #pragma debug union_end
1152  0033              #pragma debug union_end
1152  0033              #pragma debug variable 43 1 ___pe "__pe" 1
1152  0033              #pragma debug struct_end
1152  0033              #pragma debug struct_end
1152  0033              #pragma debug union_end
1152  0033              #pragma debug union_end
1152  0033              #pragma debug variable 45 1 ___pf "__pf" 1
1152  0033              
文件：Function.c   编译器版本 HGASM 0202 页次43

1152  0033              ; output external variables
1152  0033              extern _gu16v_EeTemp:byte
1152  0033              extern _gu16v_IdData:byte
1152  0033              extern _TimeFlag1:byte
1152  0033              extern _gu16v_FunPressureLowErrTimeCnt:byte
1152  0033              extern _gu16v_AutoModeCycle:byte
1152  0033              extern _gu8v_PreKeyDownDisTime:byte
1152  0033              extern _gu8v_LockDelay60S:byte
1152  0033              extern _KeyFlag2:byte
1152  0033              extern _WorkFlag3:byte
1152  0033              extern _gu8v_PowerOnDelay:byte
1152  0033              extern _DcfFlag1:byte
1152  0033              extern _KeyFlag3:byte
1152  0033              extern _KeyFlag1:byte
1152  0033              extern _gu8v_433RecValue:byte
1152  0033              extern _gu8v_IrDelay:byte
1152  0033              extern _gu8v_FunPwmDuty:byte
1152  0033              extern _gu8v_FunPwmDelay:byte
1152  0033              extern _gu8v_FunPressureFullAdcCnt:byte
1152  0033              extern _gu8v_FunPressureLowAdcCnt:byte
1152  0033              extern _gu8v_FunMotoOffDebounce:byte
1152  0033              extern _gu8v_FunMotoOnDebounce:byte
1152  0033              extern _gu8v_7KpDebounce:byte
1152  0033              extern _gu16v_Fun7P5mmHgData:byte
1152  0033              extern _gu16v_FunSensroCmp:byte
1152  0033              extern _gu8v_AbNumDisCurrentValue:byte
1152  0033              extern _gu8v_AbPwmDuty:byte
1152  0033              extern _gu8v_AbPwmDelay:byte
1152  0033              extern _WorkModeFlag:byte
1152  0033              extern _gu8v_AbSensorLowPwmCnt:byte
1152  0033              extern _gu8v_AbPressureFullAdcCnt:byte
1152  0033              extern _gu8v_AbPressureNoFullAdcCnt:byte
1152  0033              extern _gu8v_AbMotoOffDebounce:byte
1152  0033              extern _gu8v_AbMotoOnDebounce:byte
1152  0033              extern _gu8v_12KpDebounce:byte
1152  0033              extern _WorkFlag1:byte
1152  0033              extern _WorkFlag2:byte
1152  0033              extern _gu8v_AbSensorPressureCnt:byte
1152  0033              extern _gu8v_AbNumDisValue:byte
1152  0033              extern _TimeFlag2:byte
1152  0033              extern _WorkFlag6:byte
1152  0033              extern _gu16v_AbPressureLowErrTimeCmp:byte
1152  0033              extern _gu16v_AbPressureLowErrTimeCnt:byte
1152  0033              extern _gu8v_AbPressureLowNorAdcCnt:byte
1152  0033              extern _gu16v_Ab7P5mmHgData:byte
1152  0033              extern _gu16v_AbSensroCmp:byte
1152  0033              extern _gu8v_PressureMode:byte
1152  0033              extern _gu8v_AbGetAdcZeroCnt:byte
1152  0033              extern _gu16v_FunAdcZeroDataSum:byte
1152  0033              extern _gu16v_FunAdcSensor:byte
1152  0033              extern _gu16v_AbAdcZeroDataSum:byte
1152  0033              extern _gu16v_ABAdcSensor:byte
1152  0033              extern _gu16v_Fun150CalDataEeCopy:byte
1152  0033              extern _gu16v_Ab150CalDataEeCopy:byte
1152  0033              extern _WorkFlag4:byte
1152  0033              extern _gu16v_Fun150CalDataEe:byte
1152  0033              extern _gu16v_FunAdcZeroData:byte
1152  0033              extern _gu16v_Ab150CalDataEe:byte
1152  0033              extern _gu16v_AbAdcZeroData:byte
1152  0033              extern _gu8v_CalModeIndex:byte
文件：Function.c   编译器版本 HGASM 0202 页次44

1152  0033              extern _gu16v_JiaoTiTimeCnt:byte
1152  0033              extern _gu16v_JiaoTiTimeCmp:byte
1152  0033              extern _gu16v_JiaoTiTime:byte
1152  0033              extern _gu8v_JiaoTiMode:byte
1152  0033              extern _gu8v_AbFangQiTime:byte
1152  0033              extern _gu8v_WorkMode:byte
1152  0033              extern _gu8v_RfSendBitCnt:byte
1152  0033              extern _gu8v_RfSendByteCnt:byte
1152  0033              extern _gu8v_RfBitCycle:byte
1152  0033              extern _gu8v_RfSendStep:byte
1152  0033              extern _gu8v_VoicePluse:byte
1152  0033              extern _WorkFlag5:byte
1152  0033              extern _Beep:near
1152  0033              extern _builtin_holtek_mulhi3_2:byte
1152  0033              extern _builtin_holtek_mulhi3:near
1152  0033              extern _FactoryMode_Task:near
1152  0033              extern _Work_StatusRegInit:near
1152  0033              extern _Work_SensorAdcRegInit:near
1152  0033              extern _Init_TimerReg:near
1152  0033              extern _EEPROM_WriteBytes_2:byte
1152  0033              extern _EEPROM_WriteBytes:near
1152  0033              extern _builtin_holtek_udivmodhi4_2:byte
1152  0033              extern _builtin_holtek_udivmodhi4:near
1152  0033              extern _EEPROM_ReadBytes:near
1152  0033              
1152  0033              ; 
1152  0033              ; Generated by holtek-gcc v3.19, Mon Jan 12 15:28:07 2026
1152  0033              ; Rebuild 718
1152  0033              ; end of file


        0 Errors, 0