文件：hal_uart.c   编译器版本 HGASM 0202 页次1


   1  0000              ; Generated by holtek-gcc v3.19, Mon Jan 12 15:28:09 2026
   2  0000              ; 
   3  0000              ; Configuration:
   4  0000              ;       with long instruction
   5  0000              ;       Multi-ROM, Multi-RAM
   6  0000              ;       bits_per_rom_unit:16
   7  0000              ;       with mp1
   8  0000              ;       with tbhp, address(0x9)
   9  0000              ;          Use tabrd-const
  10  0000              ;       
  11  0000              ; SFR address of long-instruction arch:
  12  0000              ;    mp0 = -1,1,0
  13  0000              ;    mp1 = 4,3,2
  14  0000              ;    mp2 = 14,13,12
  15  0000              ;    tbp = 9,7,8
  16  0000              ;    acc = 5
  17  0000              ;    pcl = 6
  18  0000              ;    status = 10
  19  0000              ;    bp = 11
  20  0000              ;    intc = 16
  21  0000              ;       
  22  0000              ;       
  23  0000              ; use 'tabrdc' instead of 'tabrd'
  24  0000              ;       
  25  0000              
  26  0000              #pragma translator "holtek-gcc 4.6.4" "3.19" "build 20130711"
  27  0000              ; Rebuild 718
  28  0000              
  29  0000              ir equ [2]
  30  0000              mp equ [3]
  31  0000              sbp equ [4]
  32  0000              acc equ [5]
  33  0000              bp equ [11]
  34  0000              tblp equ [7]
  35  0000              tbhp equ [9]
  36  0000              status equ [10]
  37  0000              c equ [10].0
  38  0000              ac equ [10].1
  39  0000              z equ [10].2
  40  0000              ov equ [10].3
  41  0000              cz equ [10].6
  42  0000              sc equ [10].7
  43  0000              intc equ [16]
  44  0000              
  45  0000              extern ra:byte
  46  0000              extern rb:byte
  47  0000              extern rc:byte
  48  0000              extern rd:byte
  49  0000              extern re:byte
  50  0000              extern rf:byte
  51  0000              extern rg:byte
  52  0000              extern rh:byte
  53  0000              extern _Crom2Prom:near
  54  0000              extern _Crom2PromNext:near
  55  0000              
  56  0000              RAMBANK 0 @BITDATASEC, @BITDATASEC1
  57  0000              @HCCINIT	.section 'data'
  58  0000              @HCCINIT0	.section 'data'
  59  0000              @BITDATASEC	 .section 'data'
文件：hal_uart.ASM 编译器版本 HGASM 0202 页次2

  60  0000              @BITDATASEC1	 .section 'data'
  61  0000              
  62  0000              #pragma debug scope 1 1
  63  0000              	extern __DELAY3:near
  64  0000              	extern __DELAYX3:near
  65  0000              	extern __DELAYX6:near
  66  0000              	extern __DELAYY5:near
  67  0000              	extern __DELAYY3:near
  68  0000              	extern _builtin_holtek_delay_2:byte
  69  0000              ___pfc equ [116]
  70  0000              ___pfs0 equ [335]
  71  0000              ___ucr1 equ [119]
  72  0000              ___ucr2 equ [120]
  73  0000              ___brg equ [122]
  74  0000              ___usr equ [118]
  75  0000              ___intc0 equ [16]
  76  0000              ___intc1 equ [17]
  77  0000              public _uart_init
  78  0000              #pragma debug scope 2 1

  93  0000              #line 93 "D:\Work\Project\bintuo-F73\Software\BS66F360C\Source\ming\hal_uart.c"
  93  0000              _uart_init .section 'code'
  93  0000              _uart_init proc
  98  0000              #line 98 "D:\Work\Project\bintuo-F73\Software\BS66F360C\Source\ming\hal_uart.c"
  98  0000  35F4        	clr [116].3
  99  0001              #line 99 "D:\Work\Project\bintuo-F73\Software\BS66F360C\Source\ming\hal_uart.c"
  99  0001  B7CF 0001   	lclr [335].7
 100  0003              #line 100 "D:\Work\Project\bintuo-F73\Software\BS66F360C\Source\ming\hal_uart.c"
 100  0003  B34F 0001   	lset [335].6
 104  0005              #line 104 "D:\Work\Project\bintuo-F73\Software\BS66F360C\Source\ming\hal_uart.c"
 104  0005  0F70        	mov a,112
 104  0006  00F7        	mov [119],a
 112  0007              #line 112 "D:\Work\Project\bintuo-F73\Software\BS66F360C\Source\ming\hal_uart.c"
 112  0007  0F20        	mov a,32
 112  0008  00F8        	mov [120],a
 124  0009              #line 124 "D:\Work\Project\bintuo-F73\Software\BS66F360C\Source\ming\hal_uart.c"
 124  0009  0F19        	mov a,25
 124  000A  00FA        	mov [122],a
 160  000B              #line 160 "D:\Work\Project\bintuo-F73\Software\BS66F360C\Source\ming\hal_uart.c"
 160  000B  0F33        	mov a,51
 160  000C  00FA        	mov [122],a
 162  000D              #line 162 "D:\Work\Project\bintuo-F73\Software\BS66F360C\Source\ming\hal_uart.c"
 162  000D  0776        	mov a,[118]
 162  000E  0080     E  	mov ra,a
 170  000F              #line 170 "D:\Work\Project\bintuo-F73\Software\BS66F360C\Source\ming\hal_uart.c"
 170  000F  3010        	set [16].0
 172  0010              #line 172 "D:\Work\Project\bintuo-F73\Software\BS66F360C\Source\ming\hal_uart.c"
 172  0010  1F00     R  	clr _uart_tx_buffers[21]
 173  0011              #line 173 "D:\Work\Project\bintuo-F73\Software\BS66F360C\Source\ming\hal_uart.c"
 173  0011  1F00     R  	clr _uart_tx_buffers[22]
 174  0012              #line 174 "D:\Work\Project\bintuo-F73\Software\BS66F360C\Source\ming\hal_uart.c"
 174  0012  1F00     R  	clr _uart_tx_buffers[23]
 176  0013              #line 176 "D:\Work\Project\bintuo-F73\Software\BS66F360C\Source\ming\hal_uart.c"
 176  0013  3611        	clr [17].4
 177  0014              #line 177 "D:\Work\Project\bintuo-F73\Software\BS66F360C\Source\ming\hal_uart.c"
 177  0014  3011        	set [17].0
 178  0015              #line 178 "D:\Work\Project\bintuo-F73\Software\BS66F360C\Source\ming\hal_uart.c"
 178  0015  3578        	clr [120].2
 179  0016              #line 179 "D:\Work\Project\bintuo-F73\Software\BS66F360C\Source\ming\hal_uart.c"
 179  0016  34F8        	clr [120].1
文件：hal_uart.c   编译器版本 HGASM 0202 页次3

 180  0017              #line 180 "D:\Work\Project\bintuo-F73\Software\BS66F360C\Source\ming\hal_uart.c"
 180  0017  3478        	clr [120].0
 181  0018              #line 181 "D:\Work\Project\bintuo-F73\Software\BS66F360C\Source\ming\hal_uart.c"
 181  0018  33F7        	set [119].7
 182  0019              #line 182 "D:\Work\Project\bintuo-F73\Software\BS66F360C\Source\ming\hal_uart.c"
 182  0019  33F8        	set [120].7
 182  001A  0003        	ret
 182  001B              _uart_init endp
 182  001B              #line 182 "D:\Work\Project\bintuo-F73\Software\BS66F360C\Source\ming\hal_uart.c"
 182  001B              #pragma debug scope 1 1
 182  001B              public _uart_putchar
 182  001B              #pragma debug scope 3 1
 188  001B              #line 188 "D:\Work\Project\bintuo-F73\Software\BS66F360C\Source\ming\hal_uart.c"
 188  0000              _uart_putchar .section 'code'
 188  0000              _uart_putchar proc
 188  0000  00              local _uart_putchar_2 db 1 dup(?)	; 0,1
 188  0001              #pragma debug variable 8 3 _uart_putchar_2+0 "data"
 188  0000  0003        	ret
 188  0001              _uart_putchar endp
 188  0001              #line 188 "D:\Work\Project\bintuo-F73\Software\BS66F360C\Source\ming\hal_uart.c"
 188  0001              #pragma debug scope 1 1
 188  0001              public _uart_putint
 188  0001              #pragma debug scope 4 1
 231  0001              #line 231 "D:\Work\Project\bintuo-F73\Software\BS66F360C\Source\ming\hal_uart.c"
 231  0000              _uart_putint .section 'code'
 231  0000              _uart_putint proc
 231  0000              public _uart_putint_2
 231  0000  0002[           local _uart_putint_2 db 2 dup(?)	; 2,0
            00
            ]
 231  0002              #pragma debug variable 11 4 _uart_putint_2+0 "num"
 231  0000  0003        	ret
 231  0001              _uart_putint endp
 231  0001              #line 231 "D:\Work\Project\bintuo-F73\Software\BS66F360C\Source\ming\hal_uart.c"
 231  0001              #pragma debug scope 1 1
 231  0001              public _uart_puts
 231  0001              #pragma debug scope 5 1
 268  0001              #line 268 "D:\Work\Project\bintuo-F73\Software\BS66F360C\Source\ming\hal_uart.c"
 268  0000              _uart_puts .section 'code'
 268  0000              _uart_puts proc
 268  0000              public _uart_puts_2
 268  0000  0002[           local _uart_puts_2 db 2 dup(?)	; 2,0
            00
            ]
 268  0002              #pragma debug pointer 42 7 5
 268  0002              #pragma debug pointer 42 7 5
 268  0002              #pragma debug variable 42 5 _uart_puts_2+0 "s"
 268  0000  0003        	ret
 268  0001              _uart_puts endp
 268  0001              #line 268 "D:\Work\Project\bintuo-F73\Software\BS66F360C\Source\ming\hal_uart.c"
 268  0001              #pragma debug scope 1 1
 268  0001              public _Log_PrintHex8
 268  0001              #pragma debug scope 6 1
 289  0001              #line 289 "D:\Work\Project\bintuo-F73\Software\BS66F360C\Source\ming\hal_uart.c"
 289  0000              _Log_PrintHex8 .section 'code'
 289  0000              _Log_PrintHex8 proc
 289  0000  00              local _Log_PrintHex8_2 db 1 dup(?)	; 0,1
 289  0001              #pragma debug variable 7 6 _Log_PrintHex8_2+0 "val"
 289  0000  0003        	ret
 289  0001              _Log_PrintHex8 endp
文件：hal_uart.c   编译器版本 HGASM 0202 页次4

 289  0001              #line 289 "D:\Work\Project\bintuo-F73\Software\BS66F360C\Source\ming\hal_uart.c"
 289  0001              #pragma debug scope 1 1
 289  0001              public _uart_getchar
 289  0001              #pragma debug scope 7 1
 303  0001              #line 303 "D:\Work\Project\bintuo-F73\Software\BS66F360C\Source\ming\hal_uart.c"
 303  0000              _uart_getchar .section 'code'
 303  0000              _uart_getchar proc
 303  0000              public _uart_getchar_2
 303  0000  0002[           local _uart_getchar_2 db 2 dup(?)	; 2,0
            00
            ]
 303  0002              #pragma debug pointer 43 8 7
 303  0002              #pragma debug pointer 43 8 7
 303  0002              #pragma debug variable 43 7 _uart_getchar_2+0 "dat"
 305  0002              #line 305 "D:\Work\Project\bintuo-F73\Software\BS66F360C\Source\ming\hal_uart.c"
 305  0000  3410        	clr [16].0
 306  0001              #line 306 "D:\Work\Project\bintuo-F73\Software\BS66F360C\Source\ming\hal_uart.c"
 306  0001  0700     R  	mov a,_uart_rx_head[0]
 306  0002  0200     R  	sub a,_uart_rx_tail[0]
 306  0003  3D0A        	sz z
 306  0004  2800     R  	jmp _L8
 309  0005              #line 309 "D:\Work\Project\bintuo-F73\Software\BS66F360C\Source\ming\hal_uart.c"
 309  0005  0700     R  	mov a,_uart_rx_tail[0]
 309  0006  0080     E  	mov ra,a
 309  0007  0700     R  	mov a,_uart_getchar_2[0]
 309  0008  0083        	mov mp,a
 309  0009  0700     R  	mov a,_uart_getchar_2[1]
 309  000A  0084        	mov sbp,a
 309  000B  0F00        	mov a,0
 309  000C  0082        	mov ir,a
 310  000D              #line 310 "D:\Work\Project\bintuo-F73\Software\BS66F360C\Source\ming\hal_uart.c"
 310  000D  0F01        	mov a,1
 310  000E  0300     R  	add a,_uart_rx_tail[0]
 310  000F  0080     E  	mov rb,a
 310  0010  0F00        	mov a,0
 310  0011  1F00     E  	clr rc
 310  0012  1380     E  	adcm a,rc
 310  0013  0700     E  	mov a,rb
 310  0014  0E0F        	and a,15
 310  0015  0080     R  	mov _uart_rx_tail[0],a
 311  0016              #line 311 "D:\Work\Project\bintuo-F73\Software\BS66F360C\Source\ming\hal_uart.c"
 311  0016  0F01        	mov a,1
 311  0017  0080     E  	mov ra,a
 311  0018  2800     R  	jmp _L7
 311  0019              _L8:
 304  0019              #line 304 "D:\Work\Project\bintuo-F73\Software\BS66F360C\Source\ming\hal_uart.c"
 304  0019  1F00     E  	clr ra
 304  001A              _L7:
 313  001A              #line 313 "D:\Work\Project\bintuo-F73\Software\BS66F360C\Source\ming\hal_uart.c"
 313  001A  3010        	set [16].0
 315  001B              #line 315 "D:\Work\Project\bintuo-F73\Software\BS66F360C\Source\ming\hal_uart.c"
 315  001B  0700     E  	mov a,ra
 315  001C  0003        	ret
 315  001D              _uart_getchar endp
 315  001D              #line 315 "D:\Work\Project\bintuo-F73\Software\BS66F360C\Source\ming\hal_uart.c"
 315  001D              #pragma debug scope 1 1
 315  0000              @crom	.section 'crom'
 315  0000              _LC0:
 315  0000              	db 045h,072h,072h,02dh,075h,061h,072h,074h,074h,078h
 315  0005              	db 062h,075h,066h,066h,075h,06ch,06ch,0ah,00h
文件：hal_uart.c   编译器版本 HGASM 0202 页次5

 315  000A              ___txr_rxr equ [121]
 315  000A              public _hal_uart_sendisr
 315  000A              #pragma debug scope 8 1
 322  000A              #line 322 "D:\Work\Project\bintuo-F73\Software\BS66F360C\Source\ming\hal_uart.c"
 322  0000              _hal_uart_sendisr .section 'code'
 322  0000              _hal_uart_sendisr proc
 322  0000  00              local _hal_uart_sendisr_2 db 1 dup(?)	; 0,1
 322  0000  0080     R  	mov _hal_uart_sendisr_2[0],a
 322  0001              #pragma debug variable 8 8 _hal_uart_sendisr_2+0 "byte"
 329  0001              #line 329 "D:\Work\Project\bintuo-F73\Software\BS66F360C\Source\ming\hal_uart.c"
 329  0001  0F12        	mov a,18
 329  0002  0080     E  	mov rb,a
 329  0003  0F27        	mov a,39
 329  0004  0080     E  	mov rc,a
 329  0005              _L11:
 329  0005              #line 329 "D:\Work\Project\bintuo-F73\Software\BS66F360C\Source\ming\hal_uart.c"
 329  0005  0F14        	mov a,20
 329  0006  0200     R  	sub a,_uart_tx_buffers[23]
 329  0007  3C0A        	sz c
 329  0008  2800     R  	jmp _L17
 329  0009  0FFF        	mov a,255
 329  000A  0380     E  	addm a,rb
 329  000B  0FFF        	mov a,255
 329  000C  1380     E  	adcm a,rc
 331  000D              #line 331 "D:\Work\Project\bintuo-F73\Software\BS66F360C\Source\ming\hal_uart.c"
 331  000D  0700     E  	mov a,rb
 331  000E  0500     E  	or a,rc
 331  000F  390A        	snz z
 331  0010  2800     R  	jmp _L11
 333  0011              #line 333 "D:\Work\Project\bintuo-F73\Software\BS66F360C\Source\ming\hal_uart.c"
 333  0011  0F00     R  	mov a,low offset _LC0
 333  0012  0080     E  	mov _IOUART_SendString_2[0],a
 333  0013  0F00     R  	mov a,high offset _LC0
 333  0014  0080     E  	mov _IOUART_SendString_2[1],a
 333  0015              	fcall _IOUART_SendString
 334  001C              #line 334 "D:\Work\Project\bintuo-F73\Software\BS66F360C\Source\ming\hal_uart.c"
 334  001C  2800     R  	jmp _L10
 334  001D              _L17:
 343  001D              #line 343 "D:\Work\Project\bintuo-F73\Software\BS66F360C\Source\ming\hal_uart.c"
 343  001D  3410        	clr [16].0
 345  001E              #line 345 "D:\Work\Project\bintuo-F73\Software\BS66F360C\Source\ming\hal_uart.c"
 345  001E  0F00     R  	mov a,low offset _uart_tx_buffers
 345  001F  0300     R  	add a,_uart_tx_buffers[21]
 345  0020  0083        	mov mp,a
 345  0021  0F00     R  	mov a,high offset _uart_tx_buffers
 345  0022  1F04        	clr sbp
 345  0023  1384        	adcm a,sbp
 345  0024  0700     R  	mov a,_hal_uart_sendisr_2[0]
 345  0025  0082        	mov ir,a
 346  0026              #line 346 "D:\Work\Project\bintuo-F73\Software\BS66F360C\Source\ming\hal_uart.c"
 346  0026  1480     R  	inc _uart_tx_buffers[21]
 347  0027              #line 347 "D:\Work\Project\bintuo-F73\Software\BS66F360C\Source\ming\hal_uart.c"
 347  0027  0F14        	mov a,20
 347  0028  0200     R  	sub a,_uart_tx_buffers[21]
 347  0029  3C0A        	sz c
 347  002A  2800     R  	jmp _L15
 349  002B              #line 349 "D:\Work\Project\bintuo-F73\Software\BS66F360C\Source\ming\hal_uart.c"
 349  002B  1F00     R  	clr _uart_tx_buffers[21]
 349  002C              _L15:
 351  002C              #line 351 "D:\Work\Project\bintuo-F73\Software\BS66F360C\Source\ming\hal_uart.c"
文件：hal_uart.c   编译器版本 HGASM 0202 页次6

 351  002C  1480     R  	inc _uart_tx_buffers[23]
 352  002D              #line 352 "D:\Work\Project\bintuo-F73\Software\BS66F360C\Source\ming\hal_uart.c"
 352  002D  3010        	set [16].0
 355  002E              #line 355 "D:\Work\Project\bintuo-F73\Software\BS66F360C\Source\ming\hal_uart.c"
 355  002E  1700     R  	sdza _uart_tx_buffers[23]
 355  002F  2800     R  	jmp _L16
 358  0030              #line 358 "D:\Work\Project\bintuo-F73\Software\BS66F360C\Source\ming\hal_uart.c"
 358  0030  3477        	clr [119].0
 364  0031              #line 364 "D:\Work\Project\bintuo-F73\Software\BS66F360C\Source\ming\hal_uart.c"
 364  0031  0776        	mov a,[118]
 364  0032  0080     E  	mov ra,a
 366  0033              #line 366 "D:\Work\Project\bintuo-F73\Software\BS66F360C\Source\ming\hal_uart.c"
 366  0033  0F00     R  	mov a,low offset _uart_tx_buffers
 366  0034  0300     R  	add a,_uart_tx_buffers[22]
 366  0035  0083        	mov mp,a
 366  0036  0F00     R  	mov a,high offset _uart_tx_buffers
 366  0037  1F04        	clr sbp
 366  0038  1384        	adcm a,sbp
 366  0039              	fcall _Crom2Prom
 366  0040  00F9        	mov [121],a
 366  0041              _L16:
 371  0041              #line 371 "D:\Work\Project\bintuo-F73\Software\BS66F360C\Source\ming\hal_uart.c"
 371  0041  3078        	set [120].0
 371  0042              _L10:
 371  0042  0003        	ret
 371  0043              _hal_uart_sendisr endp
 371  0043              #line 371 "D:\Work\Project\bintuo-F73\Software\BS66F360C\Source\ming\hal_uart.c"
 371  0043              #pragma debug scope 1 1
 371  0043              public _UART_ISR
 371  0043              #pragma debug scope 9 1
 381  0043              #line 381 "D:\Work\Project\bintuo-F73\Software\BS66F360C\Source\ming\hal_uart.c"
 381  0043              rombank 0 @UART_ISR_code
 381  0000              @UART_ISR_code .section at 16 'code'
 381  0000  0080     E  	mov r1,a
 381  0001  070B        	mov a,bp
 381  0002  1F0B        	clr bp
 381  0003  2800     R  	jmp _UART_ISR
 381  0004              ROMBANK 0 _UART_ISR
 381  0004              #pragma debug scope 1 1
 381  0004              @dummy16 endp
 381  0004              #pragma debug scope 10 1
 381  0000              _UART_ISR .section 'code'
 381  0000              _UART_ISR proc
 381  0000  00          local _UART_ISR_2 db 1 dup(?)
 381  0000  0080     E  	mov r2,a
 381  0001  070A        	mov a, status
 381  0002  0080     E  	mov r3,a
 381  0003  0703        	mov a,mp
 381  0004  0080     E  	mov r4,a
 381  0005  0704        	mov a,sbp
 381  0006  0080     E  	mov r5,a
 381  0007  0707        	mov a,tblp
 381  0008  0080     E  	mov r6,a
 381  0009  0709        	mov a,tbhp
 381  000A  0080     E  	mov r7,a
 381  000B              #pragma debug variable 8 10 _UART_ISR_2+0 "status"
 388  000B              #line 388 "D:\Work\Project\bintuo-F73\Software\BS66F360C\Source\ming\hal_uart.c"
 388  000B  0776        	mov a,[118]
 388  000C  0080     R  	mov _UART_ISR_2[0],a
 408  000D              #line 408 "D:\Work\Project\bintuo-F73\Software\BS66F360C\Source\ming\hal_uart.c"
文件：hal_uart.c   编译器版本 HGASM 0202 页次7

 408  000D  3800     R  	snz _UART_ISR_2[0].0
 408  000E  2800     R  	jmp _L20
 408  000F              #line 408 "D:\Work\Project\bintuo-F73\Software\BS66F360C\Source\ming\hal_uart.c"
 408  000F  1E00     R  	snz _uart_tx_buffers[23]
 408  0010  2800     R  	jmp _L20
 415  0011              #line 415 "D:\Work\Project\bintuo-F73\Software\BS66F360C\Source\ming\hal_uart.c"
 415  0011  1480     R  	inc _uart_tx_buffers[22]
 416  0012              #line 416 "D:\Work\Project\bintuo-F73\Software\BS66F360C\Source\ming\hal_uart.c"
 416  0012  0F14        	mov a,20
 416  0013  0200     R  	sub a,_uart_tx_buffers[22]
 416  0014  3C0A        	sz c
 416  0015  2800     R  	jmp _L22
 418  0016              #line 418 "D:\Work\Project\bintuo-F73\Software\BS66F360C\Source\ming\hal_uart.c"
 418  0016  1F00     R  	clr _uart_tx_buffers[22]
 418  0017              _L22:
 421  0017              #line 421 "D:\Work\Project\bintuo-F73\Software\BS66F360C\Source\ming\hal_uart.c"
 421  0017  1780     R  	sdz _uart_tx_buffers[23]
 421  0018  2800     R  	jmp _LI1
 421  0019  2800     R  	jmp _L20
 421  001A              _LI1:
 427  001A              #line 427 "D:\Work\Project\bintuo-F73\Software\BS66F360C\Source\ming\hal_uart.c"
 427  001A  0776        	mov a,[118]
 427  001B  0080     R  	mov _UART_ISR_2[0],a
 428  001C              #line 428 "D:\Work\Project\bintuo-F73\Software\BS66F360C\Source\ming\hal_uart.c"
 428  001C  0F00     R  	mov a,low offset _uart_tx_buffers
 428  001D  0300     R  	add a,_uart_tx_buffers[22]
 428  001E  0083        	mov mp,a
 428  001F  0F00     R  	mov a,high offset _uart_tx_buffers
 428  0020  1F04        	clr sbp
 428  0021  1384        	adcm a,sbp
 428  0022              	fcall _Crom2Prom
 428  0029  00F9        	mov [121],a
 428  002A              _L20:
 448  002A              #line 448 "D:\Work\Project\bintuo-F73\Software\BS66F360C\Source\ming\hal_uart.c"
 448  002A  3611        	clr [17].4
 448  002B  0700     E  	mov a,r2
 448  002C  008B        	mov bp,a
 448  002D  0700     E  	mov a,r3
 448  002E  008A        	mov status,a
 448  002F  0700     E  	mov a,r4
 448  0030  0083        	mov mp,a
 448  0031  0700     E  	mov a,r5
 448  0032  0084        	mov sbp,a
 448  0033  0700     E  	mov a,r6
 448  0034  0087        	mov tblp,a
 448  0035  0700     E  	mov a,r7
 448  0036  0089        	mov tbhp,a
 448  0037  1D05        	tabrdc acc
 448  0038  0700     E  	mov a,r1
 448  0039  0004        	reti
 448  003A              _UART_ISR endp
 448  003A              
 448  003A              #line 448 "D:\Work\Project\bintuo-F73\Software\BS66F360C\Source\ming\hal_uart.c"
 448  003A              #pragma debug scope 1 1
 448  0000              @HCCINIT0_uart_tx_buffers .section 'data'
 448  0000  0018[       _uart_tx_buffers	db 24 dup(0)
            00
            ]
 448  0018              #pragma debug struct_end
 448  0018              #pragma debug struct_end
文件：hal_uart.c   编译器版本 HGASM 0202 页次8

 448  0018              #pragma debug variable 44 1 _uart_tx_buffers "uart_tx_buffers"
 448  0018              
 448  0000              @HCCINIT .section 'data'
 448  0000              @HCCINIT	.section 'data'
  12  0000              #line 12 "D:\Work\Project\bintuo-F73\Software\BS66F360C\Source\ming\hal_uart.c"
  12  0000              @HCCINIT_uart_rx_tail .section 'data'
  12  0000              _uart_rx_tail label byte
  12  0000              #pragma debug variable 8 1 _uart_rx_tail "uart_rx_tail"
  12  0000              	db 0
  12  0000              @ROMDATA_BASE .section inpage 'code'
  12  0000              	db 0
  12  0001              @HCCINIT_uart_rx_tail .section 'data'
  11  0001              #line 11 "D:\Work\Project\bintuo-F73\Software\BS66F360C\Source\ming\hal_uart.c"
  11  0000              @HCCINIT_uart_rx_head .section 'data'
  11  0000              _uart_rx_head label byte
  11  0000              #pragma debug variable 8 1 _uart_rx_head "uart_rx_head"
  11  0000              	db 0
  11  0001              @ROMDATA_BASE .section inpage 'code'
  11  0001              	db 0
  11  0001              @HCCINIT_uart_rx_head .section 'data'
  11  0001              #pragma debug struct_end
  11  0001              #pragma debug struct_end
  11  0001              #pragma debug union_end
  11  0001              #pragma debug union_end
  11  0001              #pragma debug variable 46 1 ___intc0 "__intc0" 1
  11  0001              #pragma debug struct_end
  11  0001              #pragma debug struct_end
  11  0001              #pragma debug union_end
  11  0001              #pragma debug union_end
  11  0001              #pragma debug variable 48 1 ___intc1 "__intc1" 1
  11  0001              #pragma debug struct_end
  11  0001              #pragma debug struct_end
  11  0001              #pragma debug union_end
  11  0001              #pragma debug union_end
  11  0001              #pragma debug variable 50 1 ___pfc "__pfc" 1
  11  0001              #pragma debug struct_end
  11  0001              #pragma debug struct_end
  11  0001              #pragma debug union_end
  11  0001              #pragma debug union_end
  11  0001              #pragma debug variable 52 1 ___usr "__usr" 1
  11  0001              #pragma debug struct_end
  11  0001              #pragma debug struct_end
  11  0001              #pragma debug union_end
  11  0001              #pragma debug union_end
  11  0001              #pragma debug variable 54 1 ___ucr1 "__ucr1" 1
  11  0001              #pragma debug struct_end
  11  0001              #pragma debug struct_end
  11  0001              #pragma debug union_end
  11  0001              #pragma debug union_end
  11  0001              #pragma debug variable 56 1 ___ucr2 "__ucr2" 1
  11  0001              #pragma debug struct_end
  11  0001              #pragma debug struct_end
  11  0001              #pragma debug union_end
  11  0001              #pragma debug union_end
  11  0001              #pragma debug variable 58 1 ___txr_rxr "__txr_rxr" 1
  11  0001              #pragma debug variable 8 1 ___brg "__brg" 1
  11  0001              #pragma debug struct_end
  11  0001              #pragma debug struct_end
  11  0001              #pragma debug union_end
  11  0001              #pragma debug union_end
文件：hal_uart.c   编译器版本 HGASM 0202 页次9

  11  0001              #pragma debug variable 60 1 ___pfs0 "__pfs0" 1
  11  0001              extern r1:byte
  11  0001              extern r2:byte
  11  0001              extern r3:byte
  11  0001              extern r4:byte
  11  0001              extern r5:byte
  11  0001              extern r6:byte
  11  0001              extern r7:byte
  11  0001              extern _IOUART_SendString_2:byte
  11  0001              extern _IOUART_SendString:near
  11  0001              
  11  0001              ; 
  11  0001              ; Generated by holtek-gcc v3.19, Mon Jan 12 15:28:09 2026
  11  0001              ; Rebuild 718
  11  0001              ; end of file


        0 Errors, 0