文件：Interrupt.c  编译器版本 HGASM 0202 页次1


   1  0000              ; Generated by holtek-gcc v3.19, Wed Jan 07 18:11:22 2026
   2  0000              ; 
   3  0000              ; Configuration:
   4  0000              ;       with long instruction
   5  0000              ;       Multi-ROM, Multi-RAM
   6  0000              ;       bits_per_rom_unit:16
   7  0000              ;       with mp1
   8  0000              ;       with tbhp, address(0x9)
   9  0000              ;          Use tabrd-const
  10  0000              ;       
  11  0000              ; SFR address of long-instruction arch:
  12  0000              ;    mp0 = -1,1,0
  13  0000              ;    mp1 = 4,3,2
  14  0000              ;    mp2 = 14,13,12
  15  0000              ;    tbp = 9,7,8
  16  0000              ;    acc = 5
  17  0000              ;    pcl = 6
  18  0000              ;    status = 10
  19  0000              ;    bp = 11
  20  0000              ;    intc = 16
  21  0000              ;       
  22  0000              ;       
  23  0000              ; use 'tabrdc' instead of 'tabrd'
  24  0000              ;       
  25  0000              
  26  0000              #pragma translator "holtek-gcc 4.6.4" "3.19" "build 20130711"
  27  0000              ; Rebuild 718
  28  0000              
  29  0000              ir equ [2]
  30  0000              mp equ [3]
  31  0000              sbp equ [4]
  32  0000              acc equ [5]
  33  0000              bp equ [11]
  34  0000              tblp equ [7]
  35  0000              tbhp equ [9]
  36  0000              status equ [10]
  37  0000              c equ [10].0
  38  0000              ac equ [10].1
  39  0000              z equ [10].2
  40  0000              ov equ [10].3
  41  0000              cz equ [10].6
  42  0000              sc equ [10].7
  43  0000              intc equ [16]
  44  0000              
  45  0000              extern ra:byte
  46  0000              extern rb:byte
  47  0000              extern rc:byte
  48  0000              extern rd:byte
  49  0000              extern re:byte
  50  0000              extern rf:byte
  51  0000              extern rg:byte
  52  0000              extern rh:byte
  53  0000              extern _Crom2Prom:near
  54  0000              extern _Crom2PromNext:near
  55  0000              
  56  0000              RAMBANK 0 @BITDATASEC, @BITDATASEC1
  57  0000              @HCCINIT	.section 'data'
  58  0000              @HCCINIT0	.section 'data'
  59  0000              @BITDATASEC	 .section 'data'
文件：Interrupt.ASM 编译器版本 HGASM 0202 页次2

  60  0000              @BITDATASEC1	 .section 'data'
  61  0000              
  62  0000              #pragma debug scope 1 1
  63  0000              	extern __DELAY3:near
  64  0000              	extern __DELAYX3:near
  65  0000              	extern __DELAYX6:near
  66  0000              	extern __DELAYY5:near
  67  0000              	extern __DELAYY3:near
  68  0000              	extern _builtin_holtek_delay_2:byte
  69  0000              ___mfi2 equ [44]
  70  0000              ___pa equ [20]
  71  0000              ___pb equ [24]
  72  0000              ___pe equ [112]
  73  0000              public _MF2_ISR
  74  0000              #pragma debug scope 2 1

  11  0000              #line 11 "d:\work\project\bintuo-f73\software\bs66f360c\Source\Interrupt.c"
  11  0000              rombank 0 @MF2_ISR_code
  11  0000              @MF2_ISR_code .section at 32 'code'
  11  0000  0080     E  	mov r1,a
  11  0001  070B        	mov a,bp
  11  0002  1F0B        	clr bp
  11  0003  2800     R  	jmp _MF2_ISR
  11  0004              ROMBANK 0 _MF2_ISR
  11  0004              #pragma debug scope 1 1
  11  0004              @dummy32 endp
  11  0004              #pragma debug scope 3 1
  11  0000              _MF2_ISR .section 'code'
  11  0000              _MF2_ISR proc
  11  0000  00          local _MF2_ISR_2 db 1 dup(?)
  11  0000  0080     E  	mov r2,a
  11  0001  070A        	mov a, status
  11  0002  0080     E  	mov r3,a
  11  0003  0703        	mov a,mp
  11  0004  0080     E  	mov r4,a
  11  0005  0704        	mov a,sbp
  11  0006  0080     E  	mov r5,a
  11  0007  0707        	mov a,tblp
  11  0008  0080     E  	mov r6,a
  11  0009  0709        	mov a,tbhp
  11  000A  0080     E  	mov r7,a
  12  000B              #line 12 "d:\work\project\bintuo-f73\software\bs66f360c\Source\Interrupt.c"
  12  000B  3AAC        	snz [44].5
  12  000C  2800     R  	jmp _L1
  14  000D              #line 14 "d:\work\project\bintuo-f73\software\bs66f360c\Source\Interrupt.c"
  14  000D  36AC        	clr [44].5
  15  000E              #line 15 "d:\work\project\bintuo-f73\software\bs66f360c\Source\Interrupt.c"
  15  000E  1F00     E  	clr ra
  15  000F  3914        	snz [20].2
  15  0010  3000     E  	set ra.2
  15  0011  3514        	clr [20].2
  15  0012  0700     E  	mov a,ra
  15  0013  0594        	orm a,[20]
  16  0014              #line 16 "d:\work\project\bintuo-f73\software\bs66f360c\Source\Interrupt.c"
  16  0014  1F00     E  	clr ra
  16  0015  3D98        	sz [24].3
  16  0016  1480     E  	inc ra
  16  0017  0700     E  	mov a,ra
  16  0018  0380     E  	addm a,ra
  16  0019  3400     E  	clr _WorkFlag1[0].1
文件：Interrupt.c  编译器版本 HGASM 0202 页次3

  16  001A  0700     E  	mov a,ra
  16  001B  0580     E  	orm a,_WorkFlag1[0]
  17  001C              #line 17 "d:\work\project\bintuo-f73\software\bs66f360c\Source\Interrupt.c"
  17  001C  1F00     E  	clr rb
  17  001D  3C00     E  	sz _WorkFlag1[0].1
  17  001E  1480     E  	inc rb
  17  001F  1F00     E  	clr ra
  17  0020  3C00     E  	sz _WorkFlag1[0].2
  17  0021  1480     E  	inc ra
  17  0022  0700     E  	mov a,rb
  17  0023  0200     E  	sub a,ra
  17  0024  3D0A        	sz z
  17  0025  2800     R  	jmp _L4
  19  0026              #line 19 "d:\work\project\bintuo-f73\software\bs66f360c\Source\Interrupt.c"
  19  0026  0F14        	mov a,20
  19  0027  0080     E  	mov _gu8v_AcOffDebounce[0],a
  20  0028              #line 20 "d:\work\project\bintuo-f73\software\bs66f360c\Source\Interrupt.c"
  20  0028  0700     E  	mov a,_gu8v_AbPwmDuty[0]
  20  0029  0080     E  	mov _gu8v_AbPwmOutPinDuty[0],a
  21  002A              #line 21 "d:\work\project\bintuo-f73\software\bs66f360c\Source\Interrupt.c"
  21  002A  0700     E  	mov a,_gu8v_AbPwmDelay[0]
  21  002B  0080     E  	mov _gu8v_AbPwmOutPinDelay[0],a
  23  002C              #line 23 "d:\work\project\bintuo-f73\software\bs66f360c\Source\Interrupt.c"
  23  002C  0700     E  	mov a,_gu8v_FunPwmDuty[0]
  23  002D  0080     E  	mov _gu8v_FunPwmOutPinDuty[0],a
  24  002E              #line 24 "d:\work\project\bintuo-f73\software\bs66f360c\Source\Interrupt.c"
  24  002E  0700     E  	mov a,_gu8v_FunPwmDelay[0]
  24  002F  0080     E  	mov _gu8v_FunPwmOutPinDelay[0],a
  24  0030              _L4:
  26  0030              #line 26 "d:\work\project\bintuo-f73\software\bs66f360c\Source\Interrupt.c"
  26  0030  1F00     E  	clr ra
  26  0031  3C00     E  	sz _WorkFlag1[0].1
  26  0032  3000     E  	set ra.2
  26  0033  3400     E  	clr _WorkFlag1[0].2
  26  0034  0700     E  	mov a,ra
  26  0035  0580     E  	orm a,_WorkFlag1[0]
  27  0036              #line 27 "d:\work\project\bintuo-f73\software\bs66f360c\Source\Interrupt.c"
  27  0036  0700     E  	mov a,_gu8v_WorkMode[0]
  27  0037  0A03        	sub a,3
  27  0038  390A        	snz z
  27  0039  2800     R  	jmp _L5
  29  003A              #line 29 "d:\work\project\bintuo-f73\software\bs66f360c\Source\Interrupt.c"
  29  003A  3C00     E  	sz _DcfFlag1[0].0
  29  003B  2800     R  	jmp _L6
  29  003C  3800     E  	snz _DcfFlag1[0].1
  29  003D  2800     R  	jmp _L7
  29  003E              _L6:
  29  003E  3C00     E  	sz _WorkFlag2[0].6
  29  003F  2800     R  	jmp _L7
  31  0040              #line 31 "d:\work\project\bintuo-f73\software\bs66f360c\Source\Interrupt.c"
  31  0040  1E00     E  	snz _gu8v_AbPwmOutPinDelay[0]
  31  0041  2800     R  	jmp _L8
  33  0042              #line 33 "d:\work\project\bintuo-f73\software\bs66f360c\Source\Interrupt.c"
  33  0042  1580     E  	dec _gu8v_AbPwmOutPinDelay[0]
  33  0043  2800     R  	jmp _L9
  33  0044              _L8:
  37  0044              #line 37 "d:\work\project\bintuo-f73\software\bs66f360c\Source\Interrupt.c"
  37  0044  1E00     E  	snz _gu8v_AbPwmOutPinDuty[0]
  37  0045  2800     R  	jmp _L10
  37  0046  1580     E  	dec _gu8v_AbPwmOutPinDuty[0]
文件：Interrupt.c  编译器版本 HGASM 0202 页次4

  37  0047              _L10:
  38  0047              #line 38 "d:\work\project\bintuo-f73\software\bs66f360c\Source\Interrupt.c"
  38  0047  1E00     E  	snz _gu8v_AbPwmOutPinDuty[0]
  38  0048  2800     R  	jmp _L7
  38  0049  3270        	set [112].4
  38  004A  2800     R  	jmp _L9
  38  004B              _L7:
  44  004B              #line 44 "d:\work\project\bintuo-f73\software\bs66f360c\Source\Interrupt.c"
  44  004B  3670        	clr [112].4
  44  004C              _L9:
  46  004C              #line 46 "d:\work\project\bintuo-f73\software\bs66f360c\Source\Interrupt.c"
  46  004C  1E00     E  	snz _WorkModeFlag[0]
  46  004D  2800     R  	jmp _L75
  48  004E              #line 48 "d:\work\project\bintuo-f73\software\bs66f360c\Source\Interrupt.c"
  48  004E  3C00     E  	sz _DcfFlag1[0].2
  48  004F  2800     R  	jmp _L13
  48  0050  3C00     E  	sz _DcfFlag1[0].3
  48  0051  2800     R  	jmp _L13
  48  0052  3C00     E  	sz _DcfFlag1[0].4
  48  0053  2800     R  	jmp _L13
  48  0054  3800     E  	snz _DcfFlag1[0].5
  48  0055  2800     R  	jmp _L75
  48  0056              _L13:
  48  0056  3C00     E  	sz _WorkFlag2[0].7
  48  0057  2800     R  	jmp _L75
  50  0058              #line 50 "d:\work\project\bintuo-f73\software\bs66f360c\Source\Interrupt.c"
  50  0058  1E00     E  	snz _gu8v_FunPwmOutPinDelay[0]
  50  0059  2800     R  	jmp _L15
  52  005A              #line 52 "d:\work\project\bintuo-f73\software\bs66f360c\Source\Interrupt.c"
  52  005A  1580     E  	dec _gu8v_FunPwmOutPinDelay[0]
  52  005B  2800     R  	jmp _L16
  52  005C              _L15:
  56  005C              #line 56 "d:\work\project\bintuo-f73\software\bs66f360c\Source\Interrupt.c"
  56  005C  1E00     E  	snz _gu8v_FunPwmOutPinDuty[0]
  56  005D  2800     R  	jmp _L17
  56  005E  1580     E  	dec _gu8v_FunPwmOutPinDuty[0]
  56  005F              _L17:
  57  005F              #line 57 "d:\work\project\bintuo-f73\software\bs66f360c\Source\Interrupt.c"
  57  005F  1E00     E  	snz _gu8v_FunPwmOutPinDuty[0]
  57  0060  2800     R  	jmp _L75
  57  0061  32F0        	set [112].5
  57  0062  2800     R  	jmp _L16
  57  0063              _L5:
  73  0063              #line 73 "d:\work\project\bintuo-f73\software\bs66f360c\Source\Interrupt.c"
  73  0063  3670        	clr [112].4
  73  0064              _L75:
  74  0064              #line 74 "d:\work\project\bintuo-f73\software\bs66f360c\Source\Interrupt.c"
  74  0064  36F0        	clr [112].5
  74  0065              _L16:
 102  0065              #line 102 "d:\work\project\bintuo-f73\software\bs66f360c\Source\Interrupt.c"
 102  0065  0700     E  	mov a,_gu8v_RfSendStep[0]
 102  0066  0080     R  	mov _MF2_ISR_2[0],a
 102  0067  1700     R  	sdza _MF2_ISR_2[0]
 102  0068  2800     R  	jmp _LI1
 102  0069  2800     R  	jmp _L20
 102  006A              _LI1:
 102  006A  0700     R  	mov a,_MF2_ISR_2[0]
 102  006B  0A02        	sub a,2
 102  006C  390A        	snz z
 102  006D  2800     R  	jmp _L74
文件：Interrupt.c  编译器版本 HGASM 0202 页次5

 102  006E  2800     R  	jmp _L79
 102  006F              _L20:
 105  006F              #line 105 "d:\work\project\bintuo-f73\software\bs66f360c\Source\Interrupt.c"
 105  006F  3794        	clr [20].7
 106  0070              #line 106 "d:\work\project\bintuo-f73\software\bs66f360c\Source\Interrupt.c"
 106  0070  1E00     E  	snz _gu8v_RfBitCycle[0]
 106  0071  2800     R  	jmp _L22
 106  0072  1580     E  	dec _gu8v_RfBitCycle[0]
 106  0073              _L22:
 107  0073              #line 107 "d:\work\project\bintuo-f73\software\bs66f360c\Source\Interrupt.c"
 107  0073  1080     E  	sz _gu8v_RfBitCycle[0]
 107  0074  2800     R  	jmp _L24
 109  0075              #line 109 "d:\work\project\bintuo-f73\software\bs66f360c\Source\Interrupt.c"
 109  0075  0F02        	mov a,2
 109  0076  0080     E  	mov _gu8v_RfSendStep[0],a
 110  0077              #line 110 "d:\work\project\bintuo-f73\software\bs66f360c\Source\Interrupt.c"
 110  0077  1F00     E  	clr _gu8v_RfSendByteCnt[0]
 111  0078              #line 111 "d:\work\project\bintuo-f73\software\bs66f360c\Source\Interrupt.c"
 111  0078  1F00     E  	clr _gu8v_RfSendBitCnt[0]
 111  0079  2800     R  	jmp _L24
 111  007A              _L79:
 115  007A              #line 115 "d:\work\project\bintuo-f73\software\bs66f360c\Source\Interrupt.c"
 115  007A  1080     E  	sz _gu8v_RfBitCycle[0]
 115  007B  2800     R  	jmp _L25
 117  007C              #line 117 "d:\work\project\bintuo-f73\software\bs66f360c\Source\Interrupt.c"
 117  007C  0700     E  	mov a,_gu8v_VoicePluse[0]
 117  007D  0080     E  	mov rb,a
 117  007E  1F00     E  	clr rc
 117  007F  1400     E  	inca _gu8v_RfSendBitCnt[0]
 117  0080  2800     R  	jmp _LI2
 117  0081              _LI3:
 117  0081  340A        	clr c
 117  0082  3C00     E  	sz rc.7
 117  0083  300A        	set c
 117  0084  1B80     E  	rrc rc
 117  0085  1B80     E  	rrc rb
 117  0086              _LI2:
 117  0086  1785        	sdz acc
 117  0087  2800     R  	jmp _LI3
 119  0088              #line 119 "d:\work\project\bintuo-f73\software\bs66f360c\Source\Interrupt.c"
 119  0088  0F08        	mov a,8
 119  0089  0080     E  	mov _gu8v_RfBitCycle[0],a
 117  008A              #line 117 "d:\work\project\bintuo-f73\software\bs66f360c\Source\Interrupt.c"
 117  008A  3800     E  	snz rb.0
 117  008B  2800     R  	jmp _L26
 120  008C              #line 120 "d:\work\project\bintuo-f73\software\bs66f360c\Source\Interrupt.c"
 120  008C  0F02        	mov a,2
 120  008D  0080     E  	mov _gu8v_RfBitDuty[0],a
 120  008E  2800     R  	jmp _L25
 120  008F              _L26:
 125  008F              #line 125 "d:\work\project\bintuo-f73\software\bs66f360c\Source\Interrupt.c"
 125  008F  0F06        	mov a,6
 125  0090  0080     E  	mov _gu8v_RfBitDuty[0],a
 125  0091              _L25:
 128  0091              #line 128 "d:\work\project\bintuo-f73\software\bs66f360c\Source\Interrupt.c"
 128  0091  1E00     E  	snz _gu8v_RfBitCycle[0]
 128  0092  2800     R  	jmp _L27
 128  0093  1580     E  	dec _gu8v_RfBitCycle[0]
 128  0094              _L27:
 129  0094              #line 129 "d:\work\project\bintuo-f73\software\bs66f360c\Source\Interrupt.c"
文件：Interrupt.c  编译器版本 HGASM 0202 页次6

 129  0094  0700     E  	mov a,_gu8v_RfBitCycle[0]
 129  0095  0200     E  	sub a,_gu8v_RfBitDuty[0]
 129  0096  3C0A        	sz c
 129  0097  2800     R  	jmp _L76
 135  0098              #line 135 "d:\work\project\bintuo-f73\software\bs66f360c\Source\Interrupt.c"
 135  0098  3794        	clr [20].7
 136  0099              #line 136 "d:\work\project\bintuo-f73\software\bs66f360c\Source\Interrupt.c"
 136  0099  1080     E  	sz _gu8v_RfBitCycle[0]
 136  009A  2800     R  	jmp _L24
 138  009B              #line 138 "d:\work\project\bintuo-f73\software\bs66f360c\Source\Interrupt.c"
 138  009B  1480     E  	inc _gu8v_RfSendBitCnt[0]
 139  009C              #line 139 "d:\work\project\bintuo-f73\software\bs66f360c\Source\Interrupt.c"
 139  009C  0F07        	mov a,7
 139  009D  0200     E  	sub a,_gu8v_RfSendBitCnt[0]
 139  009E  3C0A        	sz c
 139  009F  2800     R  	jmp _L24
 141  00A0              #line 141 "d:\work\project\bintuo-f73\software\bs66f360c\Source\Interrupt.c"
 141  00A0  1F00     E  	clr _gu8v_RfSendBitCnt[0]
 143  00A1              #line 143 "d:\work\project\bintuo-f73\software\bs66f360c\Source\Interrupt.c"
 143  00A1  1F00     E  	clr _gu8v_RfSendStep[0]
 143  00A2  2800     R  	jmp _L24
 143  00A3              _L74:
 149  00A3              #line 149 "d:\work\project\bintuo-f73\software\bs66f360c\Source\Interrupt.c"
 149  00A3  0F28        	mov a,40
 149  00A4  0080     E  	mov _gu8v_RfBitCycle[0],a
 150  00A5              #line 150 "d:\work\project\bintuo-f73\software\bs66f360c\Source\Interrupt.c"
 150  00A5  1F00     E  	clr _gu8v_RfSendByteCnt[0]
 151  00A6              #line 151 "d:\work\project\bintuo-f73\software\bs66f360c\Source\Interrupt.c"
 151  00A6  1F00     E  	clr _gu8v_RfSendBitCnt[0]
 151  00A7              _L76:
 152  00A7              #line 152 "d:\work\project\bintuo-f73\software\bs66f360c\Source\Interrupt.c"
 152  00A7  3394        	set [20].7
 152  00A8              _L24:
 155  00A8              #line 155 "d:\work\project\bintuo-f73\software\bs66f360c\Source\Interrupt.c"
 155  00A8  1F00     E  	clr ra
 155  00A9  3D18        	sz [24].2
 155  00AA  1480     E  	inc ra
 155  00AB  1B80     E  	rrc ra
 155  00AC  1F00     E  	clr ra
 155  00AD  1B80     E  	rrc ra
 155  00AE  3400     E  	clr _WorkFlag3[0].7
 155  00AF  0700     E  	mov a,ra
 155  00B0  0580     E  	orm a,_WorkFlag3[0]
 156  00B1              #line 156 "d:\work\project\bintuo-f73\software\bs66f360c\Source\Interrupt.c"
 156  00B1  1F00     E  	clr rb
 156  00B2  3C00     E  	sz _WorkFlag3[0].4
 156  00B3  1480     E  	inc rb
 156  00B4  1800     E  	rla _WorkFlag3[0]
 156  00B5  0E01        	and a,1
 156  00B6  0080     E  	mov ra,a
 156  00B7  0700     E  	mov a,rb
 156  00B8  0200     E  	sub a,ra
 156  00B9  3D0A        	sz z
 156  00BA  2800     R  	jmp _L30
 158  00BB              #line 158 "d:\work\project\bintuo-f73\software\bs66f360c\Source\Interrupt.c"
 158  00BB  3800     E  	snz _WorkFlag3[0].7
 158  00BC  2800     R  	jmp _L31
 160  00BD              #line 160 "d:\work\project\bintuo-f73\software\bs66f360c\Source\Interrupt.c"
 160  00BD  0700     E  	mov a,_gu8v_IrSampStep[0]
 160  00BE  0080     R  	mov _MF2_ISR_2[0],a
文件：Interrupt.c  编译器版本 HGASM 0202 页次7

 160  00BF  0700     R  	mov a,_MF2_ISR_2[0]
 160  00C0  0A00        	sub a,0
 160  00C1  3D0A        	sz z
 160  00C2  2800     R  	jmp _L33
 160  00C3  0A01        	sub a,(1)-(0)
 160  00C4  3D0A        	sz z
 160  00C5  2800     R  	jmp _L34
 160  00C6  0700     R  	mov a,_MF2_ISR_2[0]
 160  00C7  0A02        	sub a,2
 160  00C8  390A        	snz z
 160  00C9  2800     R  	jmp _L32
 160  00CA  2800     R  	jmp _L80
 160  00CB              _L33:
 163  00CB              #line 163 "d:\work\project\bintuo-f73\software\bs66f360c\Source\Interrupt.c"
 163  00CB  0F1D        	mov a,29
 163  00CC  0200     E  	sub a,_gu8v_433_L_Cnt[0]
 163  00CD  3C0A        	sz c
 163  00CE  2800     R  	jmp _L32
 163  00CF  0F32        	mov a,50
 163  00D0  0200     E  	sub a,_gu8v_433_L_Cnt[0]
 163  00D1  380A        	snz c
 163  00D2  2800     R  	jmp _L32
 165  00D3              #line 165 "d:\work\project\bintuo-f73\software\bs66f360c\Source\Interrupt.c"
 165  00D3  1F00     E  	clr _gu8v_433BitCnt[0]
 166  00D4              #line 166 "d:\work\project\bintuo-f73\software\bs66f360c\Source\Interrupt.c"
 166  00D4  1F00     E  	clr _gu8v_433ByteCnt[0]
 167  00D5              #line 167 "d:\work\project\bintuo-f73\software\bs66f360c\Source\Interrupt.c"
 167  00D5  0F01        	mov a,1
 167  00D6  0080     E  	mov _gu8v_IrSampStep[0],a
 167  00D7  2800     R  	jmp _L32
 167  00D8              _L34:
 171  00D8              #line 171 "d:\work\project\bintuo-f73\software\bs66f360c\Source\Interrupt.c"
 171  00D8  1F00     E  	clr _gu8v_433BitCnt[0]
 172  00D9              #line 172 "d:\work\project\bintuo-f73\software\bs66f360c\Source\Interrupt.c"
 172  00D9  1F00     E  	clr _gu8v_433ByteCnt[0]
 173  00DA              #line 173 "d:\work\project\bintuo-f73\software\bs66f360c\Source\Interrupt.c"
 173  00DA  0F02        	mov a,2
 173  00DB  0080     E  	mov _gu8v_IrSampStep[0],a
 174  00DC              #line 174 "d:\work\project\bintuo-f73\software\bs66f360c\Source\Interrupt.c"
 174  00DC  2800     R  	jmp _L32
 174  00DD              _L80:
 176  00DD              #line 176 "d:\work\project\bintuo-f73\software\bs66f360c\Source\Interrupt.c"
 176  00DD  0F04        	mov a,4
 176  00DE  0200     E  	sub a,_gu8v_433_H_cnt[0]
 176  00DF  3C0A        	sz c
 176  00E0  2800     R  	jmp _L38
 176  00E1  0F0C        	mov a,12
 176  00E2  0200     E  	sub a,_gu8v_433_H_cnt[0]
 176  00E3  380A        	snz c
 176  00E4  2800     R  	jmp _L38
 176  00E5  1E00     E  	snz _gu8v_433_L_Cnt[0]
 176  00E6  2800     R  	jmp _L38
 176  00E7  0F05        	mov a,5
 176  00E8  0200     E  	sub a,_gu8v_433_L_Cnt[0]
 176  00E9  380A        	snz c
 176  00EA  2800     R  	jmp _L38
 178  00EB              #line 178 "d:\work\project\bintuo-f73\software\bs66f360c\Source\Interrupt.c"
 178  00EB  0F00     E  	mov a,low offset _gu8v_433RecData
 178  00EC  0300     E  	add a,_gu8v_433ByteCnt[0]
 178  00ED  0083        	mov mp,a
文件：Interrupt.c  编译器版本 HGASM 0202 页次8

 178  00EE  0F00     E  	mov a,high offset _gu8v_433RecData
 178  00EF  1F04        	clr sbp
 178  00F0  1384        	adcm a,sbp
 178  00F1              	fcall _Crom2Prom
 178  00F8  0080     R  	mov _MF2_ISR_2[0],a
 178  00F9  0F80        	mov a,-128
 178  00FA  0080     E  	mov rb,a
 178  00FB  1F00     E  	clr rc
 178  00FC  1400     E  	inca _gu8v_433BitCnt[0]
 178  00FD  2800     R  	jmp _LI4
 178  00FE              _LI5:
 178  00FE  340A        	clr c
 178  00FF  3C00     E  	sz rc.7
 178  0100  300A        	set c
 178  0101  1B80     E  	rrc rc
 178  0102  1B80     E  	rrc rb
 178  0103              _LI4:
 178  0103  1785        	sdz acc
 178  0104  2800     R  	jmp _LI5
 178  0105  0700     R  	mov a,_MF2_ISR_2[0]
 178  0106  0580     E  	orm a,rb
 178  0107  2800     R  	jmp _L77
 178  0108              _L38:
 181  0108              #line 181 "d:\work\project\bintuo-f73\software\bs66f360c\Source\Interrupt.c"
 181  0108  1E00     E  	snz _gu8v_433_H_cnt[0]
 181  0109  2800     R  	jmp _L40
 181  010A  0F05        	mov a,5
 181  010B  0200     E  	sub a,_gu8v_433_H_cnt[0]
 181  010C  380A        	snz c
 181  010D  2800     R  	jmp _L40
 181  010E  0F04        	mov a,4
 181  010F  0200     E  	sub a,_gu8v_433_L_Cnt[0]
 181  0110  3C0A        	sz c
 181  0111  2800     R  	jmp _L40
 181  0112  0F0C        	mov a,12
 181  0113  0200     E  	sub a,_gu8v_433_L_Cnt[0]
 181  0114  380A        	snz c
 181  0115  2800     R  	jmp _L40
 183  0116              #line 183 "d:\work\project\bintuo-f73\software\bs66f360c\Source\Interrupt.c"
 183  0116  0F00     E  	mov a,low offset _gu8v_433RecData
 183  0117  0300     E  	add a,_gu8v_433ByteCnt[0]
 183  0118  0083        	mov mp,a
 183  0119  0F00     E  	mov a,high offset _gu8v_433RecData
 183  011A  1F04        	clr sbp
 183  011B  1384        	adcm a,sbp
 183  011C              	fcall _Crom2Prom
 183  0123  0080     R  	mov _MF2_ISR_2[0],a
 183  0124  0F80        	mov a,-128
 183  0125  0080     E  	mov rb,a
 183  0126  1F00     E  	clr rc
 183  0127  1400     E  	inca _gu8v_433BitCnt[0]
 183  0128  2800     R  	jmp _LI6
 183  0129              _LI7:
 183  0129  340A        	clr c
 183  012A  3C00     E  	sz rc.7
 183  012B  300A        	set c
 183  012C  1B80     E  	rrc rc
 183  012D  1B80     E  	rrc rb
 183  012E              _LI6:
 183  012E  1785        	sdz acc
文件：Interrupt.c  编译器版本 HGASM 0202 页次9

 183  012F  2800     R  	jmp _LI7
 183  0130  0100     E  	cpla rb
 183  0131  0080     E  	mov rb,a
 183  0132  0700     R  	mov a,_MF2_ISR_2[0]
 183  0133  0680     E  	andm a,rb
 183  0134              _L77:
 183  0134  0700     E  	mov a,rb
 183  0135  0082        	mov ir,a
 184  0136              #line 184 "d:\work\project\bintuo-f73\software\bs66f360c\Source\Interrupt.c"
 184  0136  1480     E  	inc _gu8v_433BitCnt[0]
 184  0137  2800     R  	jmp _L39
 184  0138              _L40:
 188  0138              #line 188 "d:\work\project\bintuo-f73\software\bs66f360c\Source\Interrupt.c"
 188  0138  1F00     E  	clr _gu8v_433BitCnt[0]
 189  0139              #line 189 "d:\work\project\bintuo-f73\software\bs66f360c\Source\Interrupt.c"
 189  0139  1F00     E  	clr _gu8v_433ByteCnt[0]
 190  013A              #line 190 "d:\work\project\bintuo-f73\software\bs66f360c\Source\Interrupt.c"
 190  013A  1F00     E  	clr _gu8v_IrSampStep[0]
 190  013B              _L39:
 192  013B              #line 192 "d:\work\project\bintuo-f73\software\bs66f360c\Source\Interrupt.c"
 192  013B  0F07        	mov a,7
 192  013C  0200     E  	sub a,_gu8v_433BitCnt[0]
 192  013D  3C0A        	sz c
 192  013E  2800     R  	jmp _L32
 194  013F              #line 194 "d:\work\project\bintuo-f73\software\bs66f360c\Source\Interrupt.c"
 194  013F  1F00     E  	clr _gu8v_433BitCnt[0]
 195  0140              #line 195 "d:\work\project\bintuo-f73\software\bs66f360c\Source\Interrupt.c"
 195  0140  1480     E  	inc _gu8v_433ByteCnt[0]
 196  0141              #line 196 "d:\work\project\bintuo-f73\software\bs66f360c\Source\Interrupt.c"
 196  0141  0F02        	mov a,2
 196  0142  0200     E  	sub a,_gu8v_433ByteCnt[0]
 196  0143  3C0A        	sz c
 196  0144  2800     R  	jmp _L32
 198  0145              #line 198 "d:\work\project\bintuo-f73\software\bs66f360c\Source\Interrupt.c"
 198  0145  1F00     E  	clr _gu8v_433ByteCnt[0]
 199  0146              #line 199 "d:\work\project\bintuo-f73\software\bs66f360c\Source\Interrupt.c"
 199  0146  0700     E  	mov a,_gu8v_433RecData[0]
 199  0147  0080     E  	mov _gu8v_433RecValue[0],a
 200  0148              #line 200 "d:\work\project\bintuo-f73\software\bs66f360c\Source\Interrupt.c"
 200  0148  0700     E  	mov a,_gu8v_433RecData[1]
 200  0149  0080     E  	mov _gu8v_433RecValue[1],a
 201  014A              #line 201 "d:\work\project\bintuo-f73\software\bs66f360c\Source\Interrupt.c"
 201  014A  0700     E  	mov a,_gu8v_433RecData[2]
 201  014B  0080     E  	mov _gu8v_433RecValue[2],a
 202  014C              #line 202 "d:\work\project\bintuo-f73\software\bs66f360c\Source\Interrupt.c"
 202  014C  1F00     E  	clr _gu8v_433RecData[0]
 203  014D              #line 203 "d:\work\project\bintuo-f73\software\bs66f360c\Source\Interrupt.c"
 203  014D  1F00     E  	clr _gu8v_433RecData[1]
 204  014E              #line 204 "d:\work\project\bintuo-f73\software\bs66f360c\Source\Interrupt.c"
 204  014E  1F00     E  	clr _gu8v_433RecData[2]
 205  014F              #line 205 "d:\work\project\bintuo-f73\software\bs66f360c\Source\Interrupt.c"
 205  014F  3000     E  	set _WorkFlag2[0].1
 206  0150              #line 206 "d:\work\project\bintuo-f73\software\bs66f360c\Source\Interrupt.c"
 206  0150  1F00     E  	clr _gu8v_433BitCnt[0]
 207  0151              #line 207 "d:\work\project\bintuo-f73\software\bs66f360c\Source\Interrupt.c"
 207  0151  1F00     E  	clr _gu8v_433ByteCnt[0]
 208  0152              #line 208 "d:\work\project\bintuo-f73\software\bs66f360c\Source\Interrupt.c"
 208  0152  1F00     E  	clr _gu8v_IrSampStep[0]
 208  0153              _L32:
 213  0153              #line 213 "d:\work\project\bintuo-f73\software\bs66f360c\Source\Interrupt.c"
文件：Interrupt.c  编译器版本 HGASM 0202 页次10

 213  0153  1F00     E  	clr _gu8v_433_H_cnt[0]
 214  0154              #line 214 "d:\work\project\bintuo-f73\software\bs66f360c\Source\Interrupt.c"
 214  0154  1F00     E  	clr _gu8v_433_L_Cnt[0]
 214  0155  2800     R  	jmp _L31
 214  0156              _L30:
 219  0156              #line 219 "d:\work\project\bintuo-f73\software\bs66f360c\Source\Interrupt.c"
 219  0156  3800     E  	snz _WorkFlag3[0].7
 219  0157  2800     R  	jmp _L41
 221  0158              #line 221 "d:\work\project\bintuo-f73\software\bs66f360c\Source\Interrupt.c"
 221  0158  0FF9        	mov a,249
 221  0159  0200     E  	sub a,_gu8v_433_H_cnt[0]
 221  015A  380A        	snz c
 221  015B  2800     R  	jmp _L31
 221  015C  1480     E  	inc _gu8v_433_H_cnt[0]
 221  015D  2800     R  	jmp _L31
 221  015E              _L41:
 225  015E              #line 225 "d:\work\project\bintuo-f73\software\bs66f360c\Source\Interrupt.c"
 225  015E  0FF9        	mov a,249
 225  015F  0200     E  	sub a,_gu8v_433_L_Cnt[0]
 225  0160  380A        	snz c
 225  0161  2800     R  	jmp _L31
 225  0162  1480     E  	inc _gu8v_433_L_Cnt[0]
 225  0163              _L31:
 228  0163              #line 228 "d:\work\project\bintuo-f73\software\bs66f360c\Source\Interrupt.c"
 228  0163  1800     E  	rla _WorkFlag3[0]
 228  0164  0E01        	and a,1
 228  0165  0080     E  	mov ra,a
 228  0166  1100     E  	swapa ra
 228  0167  0EF0        	and a,0f0h 
 228  0168  0080     E  	mov ra,a
 228  0169  3400     E  	clr _WorkFlag3[0].4
 228  016A  0700     E  	mov a,ra
 228  016B  0580     E  	orm a,_WorkFlag3[0]
 229  016C              #line 229 "d:\work\project\bintuo-f73\software\bs66f360c\Source\Interrupt.c"
 229  016C  1480     E  	inc _gu8v_Delay5mS[0]
 230  016D              #line 230 "d:\work\project\bintuo-f73\software\bs66f360c\Source\Interrupt.c"
 230  016D  0F27        	mov a,39
 230  016E  0200     E  	sub a,_gu8v_Delay5mS[0]
 230  016F  3C0A        	sz c
 230  0170  2800     R  	jmp _L1
 232  0171              #line 232 "d:\work\project\bintuo-f73\software\bs66f360c\Source\Interrupt.c"
 232  0171  1F00     E  	clr _gu8v_Delay5mS[0]
 233  0172              #line 233 "d:\work\project\bintuo-f73\software\bs66f360c\Source\Interrupt.c"
 233  0172  3000     E  	set _TimeFlag1[0].1
 234  0173              #line 234 "d:\work\project\bintuo-f73\software\bs66f360c\Source\Interrupt.c"
 234  0173  1480     E  	inc _gu8v_Delay10mS[0]
 235  0174              #line 235 "d:\work\project\bintuo-f73\software\bs66f360c\Source\Interrupt.c"
 235  0174  0F01        	mov a,1
 235  0175  0200     E  	sub a,_gu8v_Delay10mS[0]
 235  0176  3C0A        	sz c
 235  0177  2800     R  	jmp _L1
 237  0178              #line 237 "d:\work\project\bintuo-f73\software\bs66f360c\Source\Interrupt.c"
 237  0178  1F00     E  	clr _gu8v_Delay10mS[0]
 238  0179              #line 238 "d:\work\project\bintuo-f73\software\bs66f360c\Source\Interrupt.c"
 238  0179  3000     E  	set _TimeFlag1[0].0
 240  017A              #line 240 "d:\work\project\bintuo-f73\software\bs66f360c\Source\Interrupt.c"
 240  017A  1E00     E  	snz _gu8v_BeepTime[0]
 240  017B  2800     R  	jmp _L43
 240  017C  1580     E  	dec _gu8v_BeepTime[0]
 240  017D              _L43:
文件：Interrupt.c  编译器版本 HGASM 0202 页次11

 241  017D              #line 241 "d:\work\project\bintuo-f73\software\bs66f360c\Source\Interrupt.c"
 241  017D  1480     E  	inc _gu8v_Delay50mS[0]
 242  017E              #line 242 "d:\work\project\bintuo-f73\software\bs66f360c\Source\Interrupt.c"
 242  017E  0F04        	mov a,4
 242  017F  0200     E  	sub a,_gu8v_Delay50mS[0]
 242  0180  3C0A        	sz c
 242  0181  2800     R  	jmp _L1
 244  0182              #line 244 "d:\work\project\bintuo-f73\software\bs66f360c\Source\Interrupt.c"
 244  0182  1F00     E  	clr _gu8v_Delay50mS[0]
 245  0183              #line 245 "d:\work\project\bintuo-f73\software\bs66f360c\Source\Interrupt.c"
 245  0183  3000     E  	set _TimeFlag1[0].2
 246  0184              #line 246 "d:\work\project\bintuo-f73\software\bs66f360c\Source\Interrupt.c"
 246  0184  1480     E  	inc _gu8v_Delay100mS[0]
 247  0185              #line 247 "d:\work\project\bintuo-f73\software\bs66f360c\Source\Interrupt.c"
 247  0185  0F01        	mov a,1
 247  0186  0200     E  	sub a,_gu8v_Delay100mS[0]
 247  0187  3C0A        	sz c
 247  0188  2800     R  	jmp _L1
 249  0189              #line 249 "d:\work\project\bintuo-f73\software\bs66f360c\Source\Interrupt.c"
 249  0189  1F00     E  	clr _gu8v_Delay100mS[0]
 250  018A              #line 250 "d:\work\project\bintuo-f73\software\bs66f360c\Source\Interrupt.c"
 250  018A  3000     E  	set _TimeFlag1[0].3
 250  018B              _L1:
 250  018B  0700     E  	mov a,r2
 250  018C  008B        	mov bp,a
 250  018D  0700     E  	mov a,r3
 250  018E  008A        	mov status,a
 250  018F  0700     E  	mov a,r4
 250  0190  0083        	mov mp,a
 250  0191  0700     E  	mov a,r5
 250  0192  0084        	mov sbp,a
 250  0193  0700     E  	mov a,r6
 250  0194  0087        	mov tblp,a
 250  0195  0700     E  	mov a,r7
 250  0196  0089        	mov tbhp,a
 250  0197  1D05        	tabrdc acc
 250  0198  0700     E  	mov a,r1
 250  0199  0004        	reti
 250  019A              _MF2_ISR endp
 250  019A              
 250  019A              #line 250 "d:\work\project\bintuo-f73\software\bs66f360c\Source\Interrupt.c"
 250  019A              #pragma debug scope 1 1
 250  019A              public _Time_Base
 250  019A              #pragma debug scope 4 1
 259  019A              #line 259 "d:\work\project\bintuo-f73\software\bs66f360c\Source\Interrupt.c"
 259  0000              _Time_Base .section 'code'
 259  0000              _Time_Base proc
 260  0000              #line 260 "d:\work\project\bintuo-f73\software\bs66f360c\Source\Interrupt.c"
 260  0000  1E00     E  	snz _gu8v_AbFangQiTime[0]
 260  0001  2800     R  	jmp _L82
 262  0002              #line 262 "d:\work\project\bintuo-f73\software\bs66f360c\Source\Interrupt.c"
 262  0002  1580     E  	dec _gu8v_AbFangQiTime[0]
 262  0003              _L82:
 264  0003              #line 264 "d:\work\project\bintuo-f73\software\bs66f360c\Source\Interrupt.c"
 264  0003  1E00     E  	snz _gu8v_PowerOnDelay[0]
 264  0004  2800     R  	jmp _L83
 266  0005              #line 266 "d:\work\project\bintuo-f73\software\bs66f360c\Source\Interrupt.c"
 266  0005  1580     E  	dec _gu8v_PowerOnDelay[0]
 266  0006              _L83:
 268  0006              #line 268 "d:\work\project\bintuo-f73\software\bs66f360c\Source\Interrupt.c"
文件：Interrupt.c  编译器版本 HGASM 0202 页次12

 268  0006  1E00     E  	snz _gu8v_RfIdCopyTime[0]
 268  0007  2800     R  	jmp _L85
 270  0008              #line 270 "d:\work\project\bintuo-f73\software\bs66f360c\Source\Interrupt.c"
 270  0008  1580     E  	dec _gu8v_RfIdCopyTime[0]
 271  0009              #line 271 "d:\work\project\bintuo-f73\software\bs66f360c\Source\Interrupt.c"
 271  0009  1080     E  	sz _gu8v_RfIdCopyKeyCnt[0]
 271  000A  2800     R  	jmp _L85
 271  000B  1F00     E  	clr _gu8v_RfIdCopyKeyCnt[0]
 271  000C              _L85:
 273  000C              #line 273 "d:\work\project\bintuo-f73\software\bs66f360c\Source\Interrupt.c"
 273  000C  1E00     E  	snz _gu8v_KeyLongDelay[0]
 273  000D  2800     R  	jmp _L87
 273  000E  1580     E  	dec _gu8v_KeyLongDelay[0]
 273  000F              _L87:
 274  000F              #line 274 "d:\work\project\bintuo-f73\software\bs66f360c\Source\Interrupt.c"
 274  000F  1E00     E  	snz _gu8v_IrDelay[0]
 274  0010  2800     R  	jmp _L88
 274  0011  1580     E  	dec _gu8v_IrDelay[0]
 274  0012              _L88:
 275  0012              #line 275 "d:\work\project\bintuo-f73\software\bs66f360c\Source\Interrupt.c"
 275  0012  1E00     E  	snz _gu8v_PreKeyDownDisTime[0]
 275  0013  2800     R  	jmp _L89
 275  0014  1580     E  	dec _gu8v_PreKeyDownDisTime[0]
 275  0015              _L89:
 276  0015              #line 276 "d:\work\project\bintuo-f73\software\bs66f360c\Source\Interrupt.c"
 276  0015  1E00     E  	snz _gu8v_UartDelayClearRxIndex[0]
 276  0016  2800     R  	jmp _L91
 278  0017              #line 278 "d:\work\project\bintuo-f73\software\bs66f360c\Source\Interrupt.c"
 278  0017  1780     E  	sdz _gu8v_UartDelayClearRxIndex[0]
 278  0018  2800     R  	jmp _L91
 281  0019              #line 281 "d:\work\project\bintuo-f73\software\bs66f360c\Source\Interrupt.c"
 281  0019  1F00     E  	clr _gu8v_UartRxLength[0]
 281  001A              _L91:
 284  001A              #line 284 "d:\work\project\bintuo-f73\software\bs66f360c\Source\Interrupt.c"
 284  001A  1480     E  	inc _gu8v_Delay500mS[0]
 285  001B              #line 285 "d:\work\project\bintuo-f73\software\bs66f360c\Source\Interrupt.c"
 285  001B  0F04        	mov a,4
 285  001C  0200     E  	sub a,_gu8v_Delay500mS[0]
 285  001D  3C0A        	sz c
 285  001E  2800     R  	jmp _L81
 287  001F              #line 287 "d:\work\project\bintuo-f73\software\bs66f360c\Source\Interrupt.c"
 287  001F  1F00     E  	clr _gu8v_Delay500mS[0]
 288  0020              #line 288 "d:\work\project\bintuo-f73\software\bs66f360c\Source\Interrupt.c"
 288  0020  3000     E  	set _TimeFlag1[0].4
 289  0021              #line 289 "d:\work\project\bintuo-f73\software\bs66f360c\Source\Interrupt.c"
 289  0021  3000     E  	set _WorkFlag3[0].0
 290  0022              #line 290 "d:\work\project\bintuo-f73\software\bs66f360c\Source\Interrupt.c"
 290  0022  1F00     E  	clr ra
 290  0023  3800     E  	snz _TimeFlag1[0].6
 290  0024  3000     E  	set ra.6
 290  0025  3400     E  	clr _TimeFlag1[0].6
 290  0026  0700     E  	mov a,ra
 290  0027  0580     E  	orm a,_TimeFlag1[0]
 291  0028              #line 291 "d:\work\project\bintuo-f73\software\bs66f360c\Source\Interrupt.c"
 291  0028  1480     E  	inc _gu8v_Delay1S[0]
 292  0029              #line 292 "d:\work\project\bintuo-f73\software\bs66f360c\Source\Interrupt.c"
 292  0029  0F01        	mov a,1
 292  002A  0200     E  	sub a,_gu8v_Delay1S[0]
 292  002B  3C0A        	sz c
 292  002C  2800     R  	jmp _L81
文件：Interrupt.c  编译器版本 HGASM 0202 页次13

 294  002D              #line 294 "d:\work\project\bintuo-f73\software\bs66f360c\Source\Interrupt.c"
 294  002D  1F00     E  	clr _gu8v_Delay1S[0]
 295  002E              #line 295 "d:\work\project\bintuo-f73\software\bs66f360c\Source\Interrupt.c"
 295  002E  3000     E  	set _TimeFlag1[0].5
 296  002F              #line 296 "d:\work\project\bintuo-f73\software\bs66f360c\Source\Interrupt.c"
 296  002F  3000     E  	set _TimeFlag1[0].7
 297  0030              #line 297 "d:\work\project\bintuo-f73\software\bs66f360c\Source\Interrupt.c"
 297  0030  3000     E  	set _TimeFlag2[0].0
 298  0031              #line 298 "d:\work\project\bintuo-f73\software\bs66f360c\Source\Interrupt.c"
 298  0031  3000     E  	set _TimeFlag2[0].1
 301  0032              #line 301 "d:\work\project\bintuo-f73\software\bs66f360c\Source\Interrupt.c"
 301  0032  1E00     E  	snz _gu8v_LockDelay60S[0]
 301  0033  2800     R  	jmp _L81
 303  0034              #line 303 "d:\work\project\bintuo-f73\software\bs66f360c\Source\Interrupt.c"
 303  0034  1780     E  	sdz _gu8v_LockDelay60S[0]
 303  0035  2800     R  	jmp _L81
 306  0036              #line 306 "d:\work\project\bintuo-f73\software\bs66f360c\Source\Interrupt.c"
 306  0036  3000     E  	set _WorkFlag5[0].3
 306  0037              _L81:
 306  0037  0003        	ret
 306  0038              _Time_Base endp
 306  0038              #line 306 "d:\work\project\bintuo-f73\software\bs66f360c\Source\Interrupt.c"
 306  0038              #pragma debug scope 1 1
 306  0038              #pragma debug struct_end
 306  0038              #pragma debug struct_end
 306  0038              #pragma debug union_end
 306  0038              #pragma debug union_end
 306  0038              #pragma debug variable 43 1 ___pa "__pa" 1
 306  0038              #pragma debug struct_end
 306  0038              #pragma debug struct_end
 306  0038              #pragma debug union_end
 306  0038              #pragma debug union_end
 306  0038              #pragma debug variable 45 1 ___pb "__pb" 1
 306  0038              #pragma debug struct_end
 306  0038              #pragma debug struct_end
 306  0038              #pragma debug union_end
 306  0038              #pragma debug union_end
 306  0038              #pragma debug variable 47 1 ___mfi2 "__mfi2" 1
 306  0038              #pragma debug struct_end
 306  0038              #pragma debug struct_end
 306  0038              #pragma debug union_end
 306  0038              #pragma debug union_end
 306  0038              #pragma debug variable 49 1 ___pe "__pe" 1
 306  0038              
 306  0038              ; output external variables
 306  0038              extern _WorkFlag5:byte
 306  0038              extern _gu8v_LockDelay60S:byte
 306  0038              extern _TimeFlag2:byte
 306  0038              extern _gu8v_Delay1S:byte
 306  0038              extern _gu8v_Delay500mS:byte
 306  0038              extern _gu8v_UartRxLength:byte
 306  0038              extern _gu8v_UartDelayClearRxIndex:byte
 306  0038              extern _gu8v_PreKeyDownDisTime:byte
 306  0038              extern _gu8v_IrDelay:byte
 306  0038              extern _gu8v_KeyLongDelay:byte
 306  0038              extern _gu8v_RfIdCopyKeyCnt:byte
 306  0038              extern _gu8v_RfIdCopyTime:byte
 306  0038              extern _gu8v_PowerOnDelay:byte
 306  0038              extern _gu8v_AbFangQiTime:byte
 306  0038              extern _gu8v_Delay100mS:byte
文件：Interrupt.c  编译器版本 HGASM 0202 页次14

 306  0038              extern _gu8v_Delay50mS:byte
 306  0038              extern _gu8v_BeepTime:byte
 306  0038              extern _gu8v_Delay10mS:byte
 306  0038              extern _TimeFlag1:byte
 306  0038              extern _gu8v_Delay5mS:byte
 306  0038              extern _gu8v_433RecValue:byte
 306  0038              extern _gu8v_433RecData:byte
 306  0038              extern _gu8v_433_H_cnt:byte
 306  0038              extern _gu8v_433ByteCnt:byte
 306  0038              extern _gu8v_433BitCnt:byte
 306  0038              extern _gu8v_433_L_Cnt:byte
 306  0038              extern _gu8v_IrSampStep:byte
 306  0038              extern _WorkFlag3:byte
 306  0038              extern _gu8v_RfBitDuty:byte
 306  0038              extern _gu8v_VoicePluse:byte
 306  0038              extern _gu8v_RfSendBitCnt:byte
 306  0038              extern _gu8v_RfSendByteCnt:byte
 306  0038              extern _gu8v_RfBitCycle:byte
 306  0038              extern _gu8v_RfSendStep:byte
 306  0038              extern _WorkModeFlag:byte
 306  0038              extern _WorkFlag2:byte
 306  0038              extern _DcfFlag1:byte
 306  0038              extern _gu8v_WorkMode:byte
 306  0038              extern _gu8v_FunPwmOutPinDelay:byte
 306  0038              extern _gu8v_FunPwmDelay:byte
 306  0038              extern _gu8v_FunPwmOutPinDuty:byte
 306  0038              extern _gu8v_FunPwmDuty:byte
 306  0038              extern _gu8v_AbPwmOutPinDelay:byte
 306  0038              extern _gu8v_AbPwmDelay:byte
 306  0038              extern _gu8v_AbPwmOutPinDuty:byte
 306  0038              extern _gu8v_AbPwmDuty:byte
 306  0038              extern _gu8v_AcOffDebounce:byte
 306  0038              extern _WorkFlag1:byte
 306  0038              extern r1:byte
 306  0038              extern r2:byte
 306  0038              extern r3:byte
 306  0038              extern r4:byte
 306  0038              extern r5:byte
 306  0038              extern r6:byte
 306  0038              extern r7:byte
 306  0038              
 306  0038              ; 
 306  0038              ; Generated by holtek-gcc v3.19, Wed Jan 07 18:11:22 2026
 306  0038              ; Rebuild 718
 306  0038              ; end of file


        0 Errors, 0