文件：Interrupt.c  编译器版本 HGASM 0202 页次1


   1  0000              ; Generated by holtek-gcc v3.19, Mon Jan 12 15:28:07 2026
   2  0000              ; 
   3  0000              ; Configuration:
   4  0000              ;       with long instruction
   5  0000              ;       Multi-ROM, Multi-RAM
   6  0000              ;       bits_per_rom_unit:16
   7  0000              ;       with mp1
   8  0000              ;       with tbhp, address(0x9)
   9  0000              ;          Use tabrd-const
  10  0000              ;       
  11  0000              ; SFR address of long-instruction arch:
  12  0000              ;    mp0 = -1,1,0
  13  0000              ;    mp1 = 4,3,2
  14  0000              ;    mp2 = 14,13,12
  15  0000              ;    tbp = 9,7,8
  16  0000              ;    acc = 5
  17  0000              ;    pcl = 6
  18  0000              ;    status = 10
  19  0000              ;    bp = 11
  20  0000              ;    intc = 16
  21  0000              ;       
  22  0000              ;       
  23  0000              ; use 'tabrdc' instead of 'tabrd'
  24  0000              ;       
  25  0000              
  26  0000              #pragma translator "holtek-gcc 4.6.4" "3.19" "build 20130711"
  27  0000              ; Rebuild 718
  28  0000              
  29  0000              ir equ [2]
  30  0000              mp equ [3]
  31  0000              sbp equ [4]
  32  0000              acc equ [5]
  33  0000              bp equ [11]
  34  0000              tblp equ [7]
  35  0000              tbhp equ [9]
  36  0000              status equ [10]
  37  0000              c equ [10].0
  38  0000              ac equ [10].1
  39  0000              z equ [10].2
  40  0000              ov equ [10].3
  41  0000              cz equ [10].6
  42  0000              sc equ [10].7
  43  0000              intc equ [16]
  44  0000              
  45  0000              extern ra:byte
  46  0000              extern rb:byte
  47  0000              extern rc:byte
  48  0000              extern rd:byte
  49  0000              extern re:byte
  50  0000              extern rf:byte
  51  0000              extern rg:byte
  52  0000              extern rh:byte
  53  0000              extern _Crom2Prom:near
  54  0000              extern _Crom2PromNext:near
  55  0000              
  56  0000              RAMBANK 0 @BITDATASEC, @BITDATASEC1
  57  0000              @HCCINIT	.section 'data'
  58  0000              @HCCINIT0	.section 'data'
  59  0000              @BITDATASEC	 .section 'data'
文件：Interrupt.ASM 编译器版本 HGASM 0202 页次2

  60  0000              @BITDATASEC1	 .section 'data'
  61  0000              
  62  0000              #pragma debug scope 1 1
  63  0000              	extern __DELAY3:near
  64  0000              	extern __DELAYX3:near
  65  0000              	extern __DELAYX6:near
  66  0000              	extern __DELAYY5:near
  67  0000              	extern __DELAYY3:near
  68  0000              	extern _builtin_holtek_delay_2:byte
  69  0000              ___mfi2 equ [44]
  70  0000              ___pa equ [20]
  71  0000              ___pb equ [24]
  72  0000              ___pe equ [112]
  73  0000              public _MF2_ISR
  74  0000              #pragma debug scope 2 1

  11  0000              #line 11 "d:\work\project\bintuo-f73\software\bs66f360c\Source\Interrupt.c"
  11  0000              rombank 0 @MF2_ISR_code
  11  0000              @MF2_ISR_code .section at 32 'code'
  11  0000  0080     E  	mov r1,a
  11  0001  070B        	mov a,bp
  11  0002  1F0B        	clr bp
  11  0003  2800     R  	jmp _MF2_ISR
  11  0004              ROMBANK 0 _MF2_ISR
  11  0004              #pragma debug scope 1 1
  11  0004              @dummy32 endp
  11  0004              #pragma debug scope 3 1
  11  0000              _MF2_ISR .section 'code'
  11  0000              _MF2_ISR proc
  11  0000  00          local _MF2_ISR_2 db 1 dup(?)
  11  0000  0080     E  	mov r2,a
  11  0001  070A        	mov a, status
  11  0002  0080     E  	mov r3,a
  11  0003  0703        	mov a,mp
  11  0004  0080     E  	mov r4,a
  11  0005  0704        	mov a,sbp
  11  0006  0080     E  	mov r5,a
  11  0007  0707        	mov a,tblp
  11  0008  0080     E  	mov r6,a
  11  0009  0709        	mov a,tbhp
  11  000A  0080     E  	mov r7,a
  12  000B              #line 12 "d:\work\project\bintuo-f73\software\bs66f360c\Source\Interrupt.c"
  12  000B  3AAC        	snz [44].5
  12  000C  2800     R  	jmp _L1
  14  000D              #line 14 "d:\work\project\bintuo-f73\software\bs66f360c\Source\Interrupt.c"
  14  000D  36AC        	clr [44].5
  16  000E              #line 16 "d:\work\project\bintuo-f73\software\bs66f360c\Source\Interrupt.c"
  16  000E  1E00     E  	snz _tx_busy[0]
  16  000F  2800     R  	jmp _L5
  16  0010  0700     E  	mov a,_tx_state[0]
  16  0011  0500     E  	or a,_tx_state[1]
  16  0012  3D0A        	sz z
  16  0013  2800     R  	jmp _L7
  16  0014  0700     E  	mov a,_tx_state[0]
  16  0015  0C01        	xor a,1
  16  0016  0500     E  	or a,_tx_state[1]
  16  0017  3D0A        	sz z
  16  0018  2800     R  	jmp _L8
  16  0019  0700     E  	mov a,_tx_state[0]
  16  001A  0C02        	xor a,2
文件：Interrupt.c  编译器版本 HGASM 0202 页次3

  16  001B  0500     E  	or a,_tx_state[1]
  16  001C  3D0A        	sz z
  16  001D  2800     R  	jmp _L9
  16  001E  0700     E  	mov a,_tx_state[0]
  16  001F  0C03        	xor a,3
  16  0020  0500     E  	or a,_tx_state[1]
  16  0021  390A        	snz z
  16  0022  2800     R  	jmp _L82
  16  0023  3114        	set [20].2
  16  0024  2800     R  	jmp _L82
  16  0025              _L7:
  16  0025  1F00     E  	clr _tx_busy[0]
  16  0026  2800     R  	jmp _L5
  16  0027              _L8:
  16  0027  3514        	clr [20].2
  16  0028  1F00     E  	clr _tx_bit_index[0]
  16  0029  0F02        	mov a,2
  16  002A  0080     E  	mov _tx_state[0],a
  16  002B  1F00     E  	clr _tx_state[1]
  16  002C  2800     R  	jmp _L5
  16  002D              _L9:
  16  002D  0700     E  	mov a,_tx_data[0]
  16  002E  0080     E  	mov rb,a
  16  002F  1F00     E  	clr rc
  16  0030  1400     E  	inca _tx_bit_index[0]
  16  0031  2800     R  	jmp _LI1
  16  0032              _LI2:
  16  0032  340A        	clr c
  16  0033  3C00     E  	sz rc.7
  16  0034  300A        	set c
  16  0035  1B80     E  	rrc rc
  16  0036  1B80     E  	rrc rb
  16  0037              _LI1:
  16  0037  1785        	sdz acc
  16  0038  2800     R  	jmp _LI2
  16  0039  0F01        	mov a,1
  16  003A  0680     E  	andm a,rb
  16  003B  1F00     E  	clr ra
  16  003C  1080     E  	sz rb
  16  003D  3000     E  	set ra.2
  16  003E  3514        	clr [20].2
  16  003F  0700     E  	mov a,ra
  16  0040  0594        	orm a,[20]
  16  0041  1400     E  	inca _tx_bit_index[0]
  16  0042  0080     E  	mov ra,a
  16  0043  0700     E  	mov a,ra
  16  0044  0080     E  	mov _tx_bit_index[0],a
  16  0045  0F07        	mov a,7
  16  0046  0200     E  	sub a,ra
  16  0047  3C0A        	sz c
  16  0048  2800     R  	jmp _L5
  16  0049  0F03        	mov a,3
  16  004A  0080     E  	mov _tx_state[0],a
  16  004B  1F00     E  	clr _tx_state[1]
  16  004C  2800     R  	jmp _L5
  16  004D              _L82:
  16  004D  1F00     E  	clr _tx_state[0]
  16  004E  1F00     E  	clr _tx_state[1]
  16  004F              _L5:
  17  004F              #line 17 "d:\work\project\bintuo-f73\software\bs66f360c\Source\Interrupt.c"
文件：Interrupt.c  编译器版本 HGASM 0202 页次4

  17  004F  1F00     E  	clr ra
  17  0050  3D98        	sz [24].3
  17  0051  1480     E  	inc ra
  17  0052  0700     E  	mov a,ra
  17  0053  0380     E  	addm a,ra
  17  0054  3400     E  	clr _WorkFlag1[0].1
  17  0055  0700     E  	mov a,ra
  17  0056  0580     E  	orm a,_WorkFlag1[0]
  18  0057              #line 18 "d:\work\project\bintuo-f73\software\bs66f360c\Source\Interrupt.c"
  18  0057  1F00     E  	clr rb
  18  0058  3C00     E  	sz _WorkFlag1[0].1
  18  0059  1480     E  	inc rb
  18  005A  1F00     E  	clr ra
  18  005B  3C00     E  	sz _WorkFlag1[0].2
  18  005C  1480     E  	inc ra
  18  005D  0700     E  	mov a,rb
  18  005E  0200     E  	sub a,ra
  18  005F  3D0A        	sz z
  18  0060  2800     R  	jmp _L12
  20  0061              #line 20 "d:\work\project\bintuo-f73\software\bs66f360c\Source\Interrupt.c"
  20  0061  0F14        	mov a,20
  20  0062  0080     E  	mov _gu8v_AcOffDebounce[0],a
  21  0063              #line 21 "d:\work\project\bintuo-f73\software\bs66f360c\Source\Interrupt.c"
  21  0063  0700     E  	mov a,_gu8v_AbPwmDuty[0]
  21  0064  0080     E  	mov _gu8v_AbPwmOutPinDuty[0],a
  22  0065              #line 22 "d:\work\project\bintuo-f73\software\bs66f360c\Source\Interrupt.c"
  22  0065  0700     E  	mov a,_gu8v_AbPwmDelay[0]
  22  0066  0080     E  	mov _gu8v_AbPwmOutPinDelay[0],a
  24  0067              #line 24 "d:\work\project\bintuo-f73\software\bs66f360c\Source\Interrupt.c"
  24  0067  0700     E  	mov a,_gu8v_FunPwmDuty[0]
  24  0068  0080     E  	mov _gu8v_FunPwmOutPinDuty[0],a
  25  0069              #line 25 "d:\work\project\bintuo-f73\software\bs66f360c\Source\Interrupt.c"
  25  0069  0700     E  	mov a,_gu8v_FunPwmDelay[0]
  25  006A  0080     E  	mov _gu8v_FunPwmOutPinDelay[0],a
  25  006B              _L12:
  27  006B              #line 27 "d:\work\project\bintuo-f73\software\bs66f360c\Source\Interrupt.c"
  27  006B  1F00     E  	clr ra
  27  006C  3C00     E  	sz _WorkFlag1[0].1
  27  006D  3000     E  	set ra.2
  27  006E  3400     E  	clr _WorkFlag1[0].2
  27  006F  0700     E  	mov a,ra
  27  0070  0580     E  	orm a,_WorkFlag1[0]
  28  0071              #line 28 "d:\work\project\bintuo-f73\software\bs66f360c\Source\Interrupt.c"
  28  0071  0700     E  	mov a,_gu8v_WorkMode[0]
  28  0072  0A03        	sub a,3
  28  0073  390A        	snz z
  28  0074  2800     R  	jmp _L13
  30  0075              #line 30 "d:\work\project\bintuo-f73\software\bs66f360c\Source\Interrupt.c"
  30  0075  3C00     E  	sz _DcfFlag1[0].0
  30  0076  2800     R  	jmp _L14
  30  0077  3800     E  	snz _DcfFlag1[0].1
  30  0078  2800     R  	jmp _L15
  30  0079              _L14:
  30  0079  3C00     E  	sz _WorkFlag2[0].6
  30  007A  2800     R  	jmp _L15
  32  007B              #line 32 "d:\work\project\bintuo-f73\software\bs66f360c\Source\Interrupt.c"
  32  007B  1E00     E  	snz _gu8v_AbPwmOutPinDelay[0]
  32  007C  2800     R  	jmp _L16
  34  007D              #line 34 "d:\work\project\bintuo-f73\software\bs66f360c\Source\Interrupt.c"
  34  007D  1580     E  	dec _gu8v_AbPwmOutPinDelay[0]
文件：Interrupt.c  编译器版本 HGASM 0202 页次5

  34  007E  2800     R  	jmp _L17
  34  007F              _L16:
  38  007F              #line 38 "d:\work\project\bintuo-f73\software\bs66f360c\Source\Interrupt.c"
  38  007F  1E00     E  	snz _gu8v_AbPwmOutPinDuty[0]
  38  0080  2800     R  	jmp _L18
  38  0081  1580     E  	dec _gu8v_AbPwmOutPinDuty[0]
  38  0082              _L18:
  39  0082              #line 39 "d:\work\project\bintuo-f73\software\bs66f360c\Source\Interrupt.c"
  39  0082  1E00     E  	snz _gu8v_AbPwmOutPinDuty[0]
  39  0083  2800     R  	jmp _L15
  39  0084  3270        	set [112].4
  39  0085  2800     R  	jmp _L17
  39  0086              _L15:
  45  0086              #line 45 "d:\work\project\bintuo-f73\software\bs66f360c\Source\Interrupt.c"
  45  0086  3670        	clr [112].4
  45  0087              _L17:
  47  0087              #line 47 "d:\work\project\bintuo-f73\software\bs66f360c\Source\Interrupt.c"
  47  0087  1E00     E  	snz _WorkModeFlag[0]
  47  0088  2800     R  	jmp _L84
  49  0089              #line 49 "d:\work\project\bintuo-f73\software\bs66f360c\Source\Interrupt.c"
  49  0089  3C00     E  	sz _DcfFlag1[0].2
  49  008A  2800     R  	jmp _L21
  49  008B  3C00     E  	sz _DcfFlag1[0].3
  49  008C  2800     R  	jmp _L21
  49  008D  3C00     E  	sz _DcfFlag1[0].4
  49  008E  2800     R  	jmp _L21
  49  008F  3800     E  	snz _DcfFlag1[0].5
  49  0090  2800     R  	jmp _L84
  49  0091              _L21:
  49  0091  3C00     E  	sz _WorkFlag2[0].7
  49  0092  2800     R  	jmp _L84
  51  0093              #line 51 "d:\work\project\bintuo-f73\software\bs66f360c\Source\Interrupt.c"
  51  0093  1E00     E  	snz _gu8v_FunPwmOutPinDelay[0]
  51  0094  2800     R  	jmp _L23
  53  0095              #line 53 "d:\work\project\bintuo-f73\software\bs66f360c\Source\Interrupt.c"
  53  0095  1580     E  	dec _gu8v_FunPwmOutPinDelay[0]
  53  0096  2800     R  	jmp _L24
  53  0097              _L23:
  57  0097              #line 57 "d:\work\project\bintuo-f73\software\bs66f360c\Source\Interrupt.c"
  57  0097  1E00     E  	snz _gu8v_FunPwmOutPinDuty[0]
  57  0098  2800     R  	jmp _L25
  57  0099  1580     E  	dec _gu8v_FunPwmOutPinDuty[0]
  57  009A              _L25:
  58  009A              #line 58 "d:\work\project\bintuo-f73\software\bs66f360c\Source\Interrupt.c"
  58  009A  1E00     E  	snz _gu8v_FunPwmOutPinDuty[0]
  58  009B  2800     R  	jmp _L84
  58  009C  32F0        	set [112].5
  58  009D  2800     R  	jmp _L24
  58  009E              _L13:
  74  009E              #line 74 "d:\work\project\bintuo-f73\software\bs66f360c\Source\Interrupt.c"
  74  009E  3670        	clr [112].4
  74  009F              _L84:
  75  009F              #line 75 "d:\work\project\bintuo-f73\software\bs66f360c\Source\Interrupt.c"
  75  009F  36F0        	clr [112].5
  75  00A0              _L24:
 103  00A0              #line 103 "d:\work\project\bintuo-f73\software\bs66f360c\Source\Interrupt.c"
 103  00A0  0700     E  	mov a,_gu8v_RfSendStep[0]
 103  00A1  0080     R  	mov _MF2_ISR_2[0],a
 103  00A2  1700     R  	sdza _MF2_ISR_2[0]
 103  00A3  2800     R  	jmp _LI3
文件：Interrupt.c  编译器版本 HGASM 0202 页次6

 103  00A4  2800     R  	jmp _L28
 103  00A5              _LI3:
 103  00A5  0700     R  	mov a,_MF2_ISR_2[0]
 103  00A6  0A02        	sub a,2
 103  00A7  390A        	snz z
 103  00A8  2800     R  	jmp _L83
 103  00A9  2800     R  	jmp _L88
 103  00AA              _L28:
 106  00AA              #line 106 "d:\work\project\bintuo-f73\software\bs66f360c\Source\Interrupt.c"
 106  00AA  3794        	clr [20].7
 107  00AB              #line 107 "d:\work\project\bintuo-f73\software\bs66f360c\Source\Interrupt.c"
 107  00AB  1E00     E  	snz _gu8v_RfBitCycle[0]
 107  00AC  2800     R  	jmp _L30
 107  00AD  1580     E  	dec _gu8v_RfBitCycle[0]
 107  00AE              _L30:
 108  00AE              #line 108 "d:\work\project\bintuo-f73\software\bs66f360c\Source\Interrupt.c"
 108  00AE  1080     E  	sz _gu8v_RfBitCycle[0]
 108  00AF  2800     R  	jmp _L32
 110  00B0              #line 110 "d:\work\project\bintuo-f73\software\bs66f360c\Source\Interrupt.c"
 110  00B0  0F02        	mov a,2
 110  00B1  0080     E  	mov _gu8v_RfSendStep[0],a
 111  00B2              #line 111 "d:\work\project\bintuo-f73\software\bs66f360c\Source\Interrupt.c"
 111  00B2  1F00     E  	clr _gu8v_RfSendByteCnt[0]
 112  00B3              #line 112 "d:\work\project\bintuo-f73\software\bs66f360c\Source\Interrupt.c"
 112  00B3  1F00     E  	clr _gu8v_RfSendBitCnt[0]
 112  00B4  2800     R  	jmp _L32
 112  00B5              _L88:
 116  00B5              #line 116 "d:\work\project\bintuo-f73\software\bs66f360c\Source\Interrupt.c"
 116  00B5  1080     E  	sz _gu8v_RfBitCycle[0]
 116  00B6  2800     R  	jmp _L33
 118  00B7              #line 118 "d:\work\project\bintuo-f73\software\bs66f360c\Source\Interrupt.c"
 118  00B7  0700     E  	mov a,_gu8v_VoicePluse[0]
 118  00B8  0080     E  	mov rb,a
 118  00B9  1F00     E  	clr rc
 118  00BA  1400     E  	inca _gu8v_RfSendBitCnt[0]
 118  00BB  2800     R  	jmp _LI4
 118  00BC              _LI5:
 118  00BC  340A        	clr c
 118  00BD  3C00     E  	sz rc.7
 118  00BE  300A        	set c
 118  00BF  1B80     E  	rrc rc
 118  00C0  1B80     E  	rrc rb
 118  00C1              _LI4:
 118  00C1  1785        	sdz acc
 118  00C2  2800     R  	jmp _LI5
 120  00C3              #line 120 "d:\work\project\bintuo-f73\software\bs66f360c\Source\Interrupt.c"
 120  00C3  0F08        	mov a,8
 120  00C4  0080     E  	mov _gu8v_RfBitCycle[0],a
 118  00C5              #line 118 "d:\work\project\bintuo-f73\software\bs66f360c\Source\Interrupt.c"
 118  00C5  3800     E  	snz rb.0
 118  00C6  2800     R  	jmp _L34
 121  00C7              #line 121 "d:\work\project\bintuo-f73\software\bs66f360c\Source\Interrupt.c"
 121  00C7  0F02        	mov a,2
 121  00C8  0080     E  	mov _gu8v_RfBitDuty[0],a
 121  00C9  2800     R  	jmp _L33
 121  00CA              _L34:
 126  00CA              #line 126 "d:\work\project\bintuo-f73\software\bs66f360c\Source\Interrupt.c"
 126  00CA  0F06        	mov a,6
 126  00CB  0080     E  	mov _gu8v_RfBitDuty[0],a
 126  00CC              _L33:
文件：Interrupt.c  编译器版本 HGASM 0202 页次7

 129  00CC              #line 129 "d:\work\project\bintuo-f73\software\bs66f360c\Source\Interrupt.c"
 129  00CC  1E00     E  	snz _gu8v_RfBitCycle[0]
 129  00CD  2800     R  	jmp _L35
 129  00CE  1580     E  	dec _gu8v_RfBitCycle[0]
 129  00CF              _L35:
 130  00CF              #line 130 "d:\work\project\bintuo-f73\software\bs66f360c\Source\Interrupt.c"
 130  00CF  0700     E  	mov a,_gu8v_RfBitCycle[0]
 130  00D0  0200     E  	sub a,_gu8v_RfBitDuty[0]
 130  00D1  3C0A        	sz c
 130  00D2  2800     R  	jmp _L85
 136  00D3              #line 136 "d:\work\project\bintuo-f73\software\bs66f360c\Source\Interrupt.c"
 136  00D3  3794        	clr [20].7
 137  00D4              #line 137 "d:\work\project\bintuo-f73\software\bs66f360c\Source\Interrupt.c"
 137  00D4  1080     E  	sz _gu8v_RfBitCycle[0]
 137  00D5  2800     R  	jmp _L32
 139  00D6              #line 139 "d:\work\project\bintuo-f73\software\bs66f360c\Source\Interrupt.c"
 139  00D6  1480     E  	inc _gu8v_RfSendBitCnt[0]
 140  00D7              #line 140 "d:\work\project\bintuo-f73\software\bs66f360c\Source\Interrupt.c"
 140  00D7  0F07        	mov a,7
 140  00D8  0200     E  	sub a,_gu8v_RfSendBitCnt[0]
 140  00D9  3C0A        	sz c
 140  00DA  2800     R  	jmp _L32
 142  00DB              #line 142 "d:\work\project\bintuo-f73\software\bs66f360c\Source\Interrupt.c"
 142  00DB  1F00     E  	clr _gu8v_RfSendBitCnt[0]
 144  00DC              #line 144 "d:\work\project\bintuo-f73\software\bs66f360c\Source\Interrupt.c"
 144  00DC  1F00     E  	clr _gu8v_RfSendStep[0]
 144  00DD  2800     R  	jmp _L32
 144  00DE              _L83:
 150  00DE              #line 150 "d:\work\project\bintuo-f73\software\bs66f360c\Source\Interrupt.c"
 150  00DE  0F28        	mov a,40
 150  00DF  0080     E  	mov _gu8v_RfBitCycle[0],a
 151  00E0              #line 151 "d:\work\project\bintuo-f73\software\bs66f360c\Source\Interrupt.c"
 151  00E0  1F00     E  	clr _gu8v_RfSendByteCnt[0]
 152  00E1              #line 152 "d:\work\project\bintuo-f73\software\bs66f360c\Source\Interrupt.c"
 152  00E1  1F00     E  	clr _gu8v_RfSendBitCnt[0]
 152  00E2              _L85:
 153  00E2              #line 153 "d:\work\project\bintuo-f73\software\bs66f360c\Source\Interrupt.c"
 153  00E2  3394        	set [20].7
 153  00E3              _L32:
 156  00E3              #line 156 "d:\work\project\bintuo-f73\software\bs66f360c\Source\Interrupt.c"
 156  00E3  1F00     E  	clr ra
 156  00E4  3D18        	sz [24].2
 156  00E5  1480     E  	inc ra
 156  00E6  1B80     E  	rrc ra
 156  00E7  1F00     E  	clr ra
 156  00E8  1B80     E  	rrc ra
 156  00E9  3400     E  	clr _WorkFlag3[0].7
 156  00EA  0700     E  	mov a,ra
 156  00EB  0580     E  	orm a,_WorkFlag3[0]
 157  00EC              #line 157 "d:\work\project\bintuo-f73\software\bs66f360c\Source\Interrupt.c"
 157  00EC  1F00     E  	clr rb
 157  00ED  3C00     E  	sz _WorkFlag3[0].4
 157  00EE  1480     E  	inc rb
 157  00EF  1800     E  	rla _WorkFlag3[0]
 157  00F0  0E01        	and a,1
 157  00F1  0080     E  	mov ra,a
 157  00F2  0700     E  	mov a,rb
 157  00F3  0200     E  	sub a,ra
 157  00F4  3D0A        	sz z
 157  00F5  2800     R  	jmp _L38
文件：Interrupt.c  编译器版本 HGASM 0202 页次8

 159  00F6              #line 159 "d:\work\project\bintuo-f73\software\bs66f360c\Source\Interrupt.c"
 159  00F6  3800     E  	snz _WorkFlag3[0].7
 159  00F7  2800     R  	jmp _L39
 161  00F8              #line 161 "d:\work\project\bintuo-f73\software\bs66f360c\Source\Interrupt.c"
 161  00F8  0700     E  	mov a,_gu8v_IrSampStep[0]
 161  00F9  0080     R  	mov _MF2_ISR_2[0],a
 161  00FA  0700     R  	mov a,_MF2_ISR_2[0]
 161  00FB  0A00        	sub a,0
 161  00FC  3D0A        	sz z
 161  00FD  2800     R  	jmp _L41
 161  00FE  0A01        	sub a,(1)-(0)
 161  00FF  3D0A        	sz z
 161  0100  2800     R  	jmp _L42
 161  0101  0700     R  	mov a,_MF2_ISR_2[0]
 161  0102  0A02        	sub a,2
 161  0103  390A        	snz z
 161  0104  2800     R  	jmp _L40
 161  0105  2800     R  	jmp _L89
 161  0106              _L41:
 164  0106              #line 164 "d:\work\project\bintuo-f73\software\bs66f360c\Source\Interrupt.c"
 164  0106  0F1D        	mov a,29
 164  0107  0200     E  	sub a,_gu8v_433_L_Cnt[0]
 164  0108  3C0A        	sz c
 164  0109  2800     R  	jmp _L40
 164  010A  0F32        	mov a,50
 164  010B  0200     E  	sub a,_gu8v_433_L_Cnt[0]
 164  010C  380A        	snz c
 164  010D  2800     R  	jmp _L40
 166  010E              #line 166 "d:\work\project\bintuo-f73\software\bs66f360c\Source\Interrupt.c"
 166  010E  1F00     E  	clr _gu8v_433BitCnt[0]
 167  010F              #line 167 "d:\work\project\bintuo-f73\software\bs66f360c\Source\Interrupt.c"
 167  010F  1F00     E  	clr _gu8v_433ByteCnt[0]
 168  0110              #line 168 "d:\work\project\bintuo-f73\software\bs66f360c\Source\Interrupt.c"
 168  0110  0F01        	mov a,1
 168  0111  0080     E  	mov _gu8v_IrSampStep[0],a
 168  0112  2800     R  	jmp _L40
 168  0113              _L42:
 172  0113              #line 172 "d:\work\project\bintuo-f73\software\bs66f360c\Source\Interrupt.c"
 172  0113  1F00     E  	clr _gu8v_433BitCnt[0]
 173  0114              #line 173 "d:\work\project\bintuo-f73\software\bs66f360c\Source\Interrupt.c"
 173  0114  1F00     E  	clr _gu8v_433ByteCnt[0]
 174  0115              #line 174 "d:\work\project\bintuo-f73\software\bs66f360c\Source\Interrupt.c"
 174  0115  0F02        	mov a,2
 174  0116  0080     E  	mov _gu8v_IrSampStep[0],a
 175  0117              #line 175 "d:\work\project\bintuo-f73\software\bs66f360c\Source\Interrupt.c"
 175  0117  2800     R  	jmp _L40
 175  0118              _L89:
 177  0118              #line 177 "d:\work\project\bintuo-f73\software\bs66f360c\Source\Interrupt.c"
 177  0118  0F04        	mov a,4
 177  0119  0200     E  	sub a,_gu8v_433_H_cnt[0]
 177  011A  3C0A        	sz c
 177  011B  2800     R  	jmp _L46
 177  011C  0F0C        	mov a,12
 177  011D  0200     E  	sub a,_gu8v_433_H_cnt[0]
 177  011E  380A        	snz c
 177  011F  2800     R  	jmp _L46
 177  0120  1E00     E  	snz _gu8v_433_L_Cnt[0]
 177  0121  2800     R  	jmp _L46
 177  0122  0F05        	mov a,5
 177  0123  0200     E  	sub a,_gu8v_433_L_Cnt[0]
文件：Interrupt.c  编译器版本 HGASM 0202 页次9

 177  0124  380A        	snz c
 177  0125  2800     R  	jmp _L46
 179  0126              #line 179 "d:\work\project\bintuo-f73\software\bs66f360c\Source\Interrupt.c"
 179  0126  0F00     E  	mov a,low offset _gu8v_433RecData
 179  0127  0300     E  	add a,_gu8v_433ByteCnt[0]
 179  0128  0083        	mov mp,a
 179  0129  0F00     E  	mov a,high offset _gu8v_433RecData
 179  012A  1F04        	clr sbp
 179  012B  1384        	adcm a,sbp
 179  012C              	fcall _Crom2Prom
 179  0133  0080     R  	mov _MF2_ISR_2[0],a
 179  0134  0F80        	mov a,-128
 179  0135  0080     E  	mov rb,a
 179  0136  1F00     E  	clr rc
 179  0137  1400     E  	inca _gu8v_433BitCnt[0]
 179  0138  2800     R  	jmp _LI6
 179  0139              _LI7:
 179  0139  340A        	clr c
 179  013A  3C00     E  	sz rc.7
 179  013B  300A        	set c
 179  013C  1B80     E  	rrc rc
 179  013D  1B80     E  	rrc rb
 179  013E              _LI6:
 179  013E  1785        	sdz acc
 179  013F  2800     R  	jmp _LI7
 179  0140  0700     R  	mov a,_MF2_ISR_2[0]
 179  0141  0580     E  	orm a,rb
 179  0142  2800     R  	jmp _L86
 179  0143              _L46:
 182  0143              #line 182 "d:\work\project\bintuo-f73\software\bs66f360c\Source\Interrupt.c"
 182  0143  1E00     E  	snz _gu8v_433_H_cnt[0]
 182  0144  2800     R  	jmp _L48
 182  0145  0F05        	mov a,5
 182  0146  0200     E  	sub a,_gu8v_433_H_cnt[0]
 182  0147  380A        	snz c
 182  0148  2800     R  	jmp _L48
 182  0149  0F04        	mov a,4
 182  014A  0200     E  	sub a,_gu8v_433_L_Cnt[0]
 182  014B  3C0A        	sz c
 182  014C  2800     R  	jmp _L48
 182  014D  0F0C        	mov a,12
 182  014E  0200     E  	sub a,_gu8v_433_L_Cnt[0]
 182  014F  380A        	snz c
 182  0150  2800     R  	jmp _L48
 184  0151              #line 184 "d:\work\project\bintuo-f73\software\bs66f360c\Source\Interrupt.c"
 184  0151  0F00     E  	mov a,low offset _gu8v_433RecData
 184  0152  0300     E  	add a,_gu8v_433ByteCnt[0]
 184  0153  0083        	mov mp,a
 184  0154  0F00     E  	mov a,high offset _gu8v_433RecData
 184  0155  1F04        	clr sbp
 184  0156  1384        	adcm a,sbp
 184  0157              	fcall _Crom2Prom
 184  015E  0080     R  	mov _MF2_ISR_2[0],a
 184  015F  0F80        	mov a,-128
 184  0160  0080     E  	mov rb,a
 184  0161  1F00     E  	clr rc
 184  0162  1400     E  	inca _gu8v_433BitCnt[0]
 184  0163  2800     R  	jmp _LI8
 184  0164              _LI9:
 184  0164  340A        	clr c
文件：Interrupt.c  编译器版本 HGASM 0202 页次10

 184  0165  3C00     E  	sz rc.7
 184  0166  300A        	set c
 184  0167  1B80     E  	rrc rc
 184  0168  1B80     E  	rrc rb
 184  0169              _LI8:
 184  0169  1785        	sdz acc
 184  016A  2800     R  	jmp _LI9
 184  016B  0100     E  	cpla rb
 184  016C  0080     E  	mov rb,a
 184  016D  0700     R  	mov a,_MF2_ISR_2[0]
 184  016E  0680     E  	andm a,rb
 184  016F              _L86:
 184  016F  0700     E  	mov a,rb
 184  0170  0082        	mov ir,a
 185  0171              #line 185 "d:\work\project\bintuo-f73\software\bs66f360c\Source\Interrupt.c"
 185  0171  1480     E  	inc _gu8v_433BitCnt[0]
 185  0172  2800     R  	jmp _L47
 185  0173              _L48:
 189  0173              #line 189 "d:\work\project\bintuo-f73\software\bs66f360c\Source\Interrupt.c"
 189  0173  1F00     E  	clr _gu8v_433BitCnt[0]
 190  0174              #line 190 "d:\work\project\bintuo-f73\software\bs66f360c\Source\Interrupt.c"
 190  0174  1F00     E  	clr _gu8v_433ByteCnt[0]
 191  0175              #line 191 "d:\work\project\bintuo-f73\software\bs66f360c\Source\Interrupt.c"
 191  0175  1F00     E  	clr _gu8v_IrSampStep[0]
 191  0176              _L47:
 193  0176              #line 193 "d:\work\project\bintuo-f73\software\bs66f360c\Source\Interrupt.c"
 193  0176  0F07        	mov a,7
 193  0177  0200     E  	sub a,_gu8v_433BitCnt[0]
 193  0178  3C0A        	sz c
 193  0179  2800     R  	jmp _L40
 195  017A              #line 195 "d:\work\project\bintuo-f73\software\bs66f360c\Source\Interrupt.c"
 195  017A  1F00     E  	clr _gu8v_433BitCnt[0]
 196  017B              #line 196 "d:\work\project\bintuo-f73\software\bs66f360c\Source\Interrupt.c"
 196  017B  1480     E  	inc _gu8v_433ByteCnt[0]
 197  017C              #line 197 "d:\work\project\bintuo-f73\software\bs66f360c\Source\Interrupt.c"
 197  017C  0F02        	mov a,2
 197  017D  0200     E  	sub a,_gu8v_433ByteCnt[0]
 197  017E  3C0A        	sz c
 197  017F  2800     R  	jmp _L40
 199  0180              #line 199 "d:\work\project\bintuo-f73\software\bs66f360c\Source\Interrupt.c"
 199  0180  1F00     E  	clr _gu8v_433ByteCnt[0]
 200  0181              #line 200 "d:\work\project\bintuo-f73\software\bs66f360c\Source\Interrupt.c"
 200  0181  0700     E  	mov a,_gu8v_433RecData[0]
 200  0182  0080     E  	mov _gu8v_433RecValue[0],a
 201  0183              #line 201 "d:\work\project\bintuo-f73\software\bs66f360c\Source\Interrupt.c"
 201  0183  0700     E  	mov a,_gu8v_433RecData[1]
 201  0184  0080     E  	mov _gu8v_433RecValue[1],a
 202  0185              #line 202 "d:\work\project\bintuo-f73\software\bs66f360c\Source\Interrupt.c"
 202  0185  0700     E  	mov a,_gu8v_433RecData[2]
 202  0186  0080     E  	mov _gu8v_433RecValue[2],a
 203  0187              #line 203 "d:\work\project\bintuo-f73\software\bs66f360c\Source\Interrupt.c"
 203  0187  1F00     E  	clr _gu8v_433RecData[0]
 204  0188              #line 204 "d:\work\project\bintuo-f73\software\bs66f360c\Source\Interrupt.c"
 204  0188  1F00     E  	clr _gu8v_433RecData[1]
 205  0189              #line 205 "d:\work\project\bintuo-f73\software\bs66f360c\Source\Interrupt.c"
 205  0189  1F00     E  	clr _gu8v_433RecData[2]
 206  018A              #line 206 "d:\work\project\bintuo-f73\software\bs66f360c\Source\Interrupt.c"
 206  018A  3000     E  	set _WorkFlag2[0].1
 207  018B              #line 207 "d:\work\project\bintuo-f73\software\bs66f360c\Source\Interrupt.c"
 207  018B  1F00     E  	clr _gu8v_433BitCnt[0]
文件：Interrupt.c  编译器版本 HGASM 0202 页次11

 208  018C              #line 208 "d:\work\project\bintuo-f73\software\bs66f360c\Source\Interrupt.c"
 208  018C  1F00     E  	clr _gu8v_433ByteCnt[0]
 209  018D              #line 209 "d:\work\project\bintuo-f73\software\bs66f360c\Source\Interrupt.c"
 209  018D  1F00     E  	clr _gu8v_IrSampStep[0]
 209  018E              _L40:
 214  018E              #line 214 "d:\work\project\bintuo-f73\software\bs66f360c\Source\Interrupt.c"
 214  018E  1F00     E  	clr _gu8v_433_H_cnt[0]
 215  018F              #line 215 "d:\work\project\bintuo-f73\software\bs66f360c\Source\Interrupt.c"
 215  018F  1F00     E  	clr _gu8v_433_L_Cnt[0]
 215  0190  2800     R  	jmp _L39
 215  0191              _L38:
 220  0191              #line 220 "d:\work\project\bintuo-f73\software\bs66f360c\Source\Interrupt.c"
 220  0191  3800     E  	snz _WorkFlag3[0].7
 220  0192  2800     R  	jmp _L49
 222  0193              #line 222 "d:\work\project\bintuo-f73\software\bs66f360c\Source\Interrupt.c"
 222  0193  0FF9        	mov a,249
 222  0194  0200     E  	sub a,_gu8v_433_H_cnt[0]
 222  0195  380A        	snz c
 222  0196  2800     R  	jmp _L39
 222  0197  1480     E  	inc _gu8v_433_H_cnt[0]
 222  0198  2800     R  	jmp _L39
 222  0199              _L49:
 226  0199              #line 226 "d:\work\project\bintuo-f73\software\bs66f360c\Source\Interrupt.c"
 226  0199  0FF9        	mov a,249
 226  019A  0200     E  	sub a,_gu8v_433_L_Cnt[0]
 226  019B  380A        	snz c
 226  019C  2800     R  	jmp _L39
 226  019D  1480     E  	inc _gu8v_433_L_Cnt[0]
 226  019E              _L39:
 229  019E              #line 229 "d:\work\project\bintuo-f73\software\bs66f360c\Source\Interrupt.c"
 229  019E  1800     E  	rla _WorkFlag3[0]
 229  019F  0E01        	and a,1
 229  01A0  0080     E  	mov ra,a
 229  01A1  1100     E  	swapa ra
 229  01A2  0EF0        	and a,0f0h 
 229  01A3  0080     E  	mov ra,a
 229  01A4  3400     E  	clr _WorkFlag3[0].4
 229  01A5  0700     E  	mov a,ra
 229  01A6  0580     E  	orm a,_WorkFlag3[0]
 230  01A7              #line 230 "d:\work\project\bintuo-f73\software\bs66f360c\Source\Interrupt.c"
 230  01A7  1480     E  	inc _gu8v_Delay5mS[0]
 231  01A8              #line 231 "d:\work\project\bintuo-f73\software\bs66f360c\Source\Interrupt.c"
 231  01A8  0F27        	mov a,39
 231  01A9  0200     E  	sub a,_gu8v_Delay5mS[0]
 231  01AA  3C0A        	sz c
 231  01AB  2800     R  	jmp _L1
 233  01AC              #line 233 "d:\work\project\bintuo-f73\software\bs66f360c\Source\Interrupt.c"
 233  01AC  1F00     E  	clr _gu8v_Delay5mS[0]
 234  01AD              #line 234 "d:\work\project\bintuo-f73\software\bs66f360c\Source\Interrupt.c"
 234  01AD  3000     E  	set _TimeFlag1[0].1
 235  01AE              #line 235 "d:\work\project\bintuo-f73\software\bs66f360c\Source\Interrupt.c"
 235  01AE  1480     E  	inc _gu8v_Delay10mS[0]
 236  01AF              #line 236 "d:\work\project\bintuo-f73\software\bs66f360c\Source\Interrupt.c"
 236  01AF  0F01        	mov a,1
 236  01B0  0200     E  	sub a,_gu8v_Delay10mS[0]
 236  01B1  3C0A        	sz c
 236  01B2  2800     R  	jmp _L1
 238  01B3              #line 238 "d:\work\project\bintuo-f73\software\bs66f360c\Source\Interrupt.c"
 238  01B3  1F00     E  	clr _gu8v_Delay10mS[0]
 239  01B4              #line 239 "d:\work\project\bintuo-f73\software\bs66f360c\Source\Interrupt.c"
文件：Interrupt.c  编译器版本 HGASM 0202 页次12

 239  01B4  3000     E  	set _TimeFlag1[0].0
 241  01B5              #line 241 "d:\work\project\bintuo-f73\software\bs66f360c\Source\Interrupt.c"
 241  01B5  1E00     E  	snz _gu8v_BeepTime[0]
 241  01B6  2800     R  	jmp _L51
 241  01B7  1580     E  	dec _gu8v_BeepTime[0]
 241  01B8              _L51:
 242  01B8              #line 242 "d:\work\project\bintuo-f73\software\bs66f360c\Source\Interrupt.c"
 242  01B8  1480     E  	inc _gu8v_Delay50mS[0]
 243  01B9              #line 243 "d:\work\project\bintuo-f73\software\bs66f360c\Source\Interrupt.c"
 243  01B9  0F04        	mov a,4
 243  01BA  0200     E  	sub a,_gu8v_Delay50mS[0]
 243  01BB  3C0A        	sz c
 243  01BC  2800     R  	jmp _L1
 245  01BD              #line 245 "d:\work\project\bintuo-f73\software\bs66f360c\Source\Interrupt.c"
 245  01BD  1F00     E  	clr _gu8v_Delay50mS[0]
 246  01BE              #line 246 "d:\work\project\bintuo-f73\software\bs66f360c\Source\Interrupt.c"
 246  01BE  3000     E  	set _TimeFlag1[0].2
 247  01BF              #line 247 "d:\work\project\bintuo-f73\software\bs66f360c\Source\Interrupt.c"
 247  01BF  1480     E  	inc _gu8v_Delay100mS[0]
 248  01C0              #line 248 "d:\work\project\bintuo-f73\software\bs66f360c\Source\Interrupt.c"
 248  01C0  0F01        	mov a,1
 248  01C1  0200     E  	sub a,_gu8v_Delay100mS[0]
 248  01C2  3C0A        	sz c
 248  01C3  2800     R  	jmp _L1
 250  01C4              #line 250 "d:\work\project\bintuo-f73\software\bs66f360c\Source\Interrupt.c"
 250  01C4  1F00     E  	clr _gu8v_Delay100mS[0]
 251  01C5              #line 251 "d:\work\project\bintuo-f73\software\bs66f360c\Source\Interrupt.c"
 251  01C5  3000     E  	set _TimeFlag1[0].3
 251  01C6              _L1:
 251  01C6  0700     E  	mov a,r2
 251  01C7  008B        	mov bp,a
 251  01C8  0700     E  	mov a,r3
 251  01C9  008A        	mov status,a
 251  01CA  0700     E  	mov a,r4
 251  01CB  0083        	mov mp,a
 251  01CC  0700     E  	mov a,r5
 251  01CD  0084        	mov sbp,a
 251  01CE  0700     E  	mov a,r6
 251  01CF  0087        	mov tblp,a
 251  01D0  0700     E  	mov a,r7
 251  01D1  0089        	mov tbhp,a
 251  01D2  1D05        	tabrdc acc
 251  01D3  0700     E  	mov a,r1
 251  01D4  0004        	reti
 251  01D5              _MF2_ISR endp
 251  01D5              
 251  01D5              #line 251 "d:\work\project\bintuo-f73\software\bs66f360c\Source\Interrupt.c"
 251  01D5              #pragma debug scope 1 1
 251  01D5              public _Time_Base
 251  01D5              #pragma debug scope 4 1
 260  01D5              #line 260 "d:\work\project\bintuo-f73\software\bs66f360c\Source\Interrupt.c"
 260  0000              _Time_Base .section 'code'
 260  0000              _Time_Base proc
 261  0000              #line 261 "d:\work\project\bintuo-f73\software\bs66f360c\Source\Interrupt.c"
 261  0000  1E00     E  	snz _gu8v_AbFangQiTime[0]
 261  0001  2800     R  	jmp _L91
 263  0002              #line 263 "d:\work\project\bintuo-f73\software\bs66f360c\Source\Interrupt.c"
 263  0002  1580     E  	dec _gu8v_AbFangQiTime[0]
 263  0003              _L91:
 265  0003              #line 265 "d:\work\project\bintuo-f73\software\bs66f360c\Source\Interrupt.c"
文件：Interrupt.c  编译器版本 HGASM 0202 页次13

 265  0003  1E00     E  	snz _gu8v_PowerOnDelay[0]
 265  0004  2800     R  	jmp _L92
 267  0005              #line 267 "d:\work\project\bintuo-f73\software\bs66f360c\Source\Interrupt.c"
 267  0005  1580     E  	dec _gu8v_PowerOnDelay[0]
 267  0006              _L92:
 269  0006              #line 269 "d:\work\project\bintuo-f73\software\bs66f360c\Source\Interrupt.c"
 269  0006  1E00     E  	snz _gu8v_RfIdCopyTime[0]
 269  0007  2800     R  	jmp _L94
 271  0008              #line 271 "d:\work\project\bintuo-f73\software\bs66f360c\Source\Interrupt.c"
 271  0008  1580     E  	dec _gu8v_RfIdCopyTime[0]
 272  0009              #line 272 "d:\work\project\bintuo-f73\software\bs66f360c\Source\Interrupt.c"
 272  0009  1080     E  	sz _gu8v_RfIdCopyKeyCnt[0]
 272  000A  2800     R  	jmp _L94
 272  000B  1F00     E  	clr _gu8v_RfIdCopyKeyCnt[0]
 272  000C              _L94:
 274  000C              #line 274 "d:\work\project\bintuo-f73\software\bs66f360c\Source\Interrupt.c"
 274  000C  1E00     E  	snz _gu8v_KeyLongDelay[0]
 274  000D  2800     R  	jmp _L96
 274  000E  1580     E  	dec _gu8v_KeyLongDelay[0]
 274  000F              _L96:
 275  000F              #line 275 "d:\work\project\bintuo-f73\software\bs66f360c\Source\Interrupt.c"
 275  000F  1E00     E  	snz _gu8v_IrDelay[0]
 275  0010  2800     R  	jmp _L97
 275  0011  1580     E  	dec _gu8v_IrDelay[0]
 275  0012              _L97:
 276  0012              #line 276 "d:\work\project\bintuo-f73\software\bs66f360c\Source\Interrupt.c"
 276  0012  1E00     E  	snz _gu8v_PreKeyDownDisTime[0]
 276  0013  2800     R  	jmp _L98
 276  0014  1580     E  	dec _gu8v_PreKeyDownDisTime[0]
 276  0015              _L98:
 277  0015              #line 277 "d:\work\project\bintuo-f73\software\bs66f360c\Source\Interrupt.c"
 277  0015  1E00     E  	snz _gu8v_UartDelayClearRxIndex[0]
 277  0016  2800     R  	jmp _L100
 279  0017              #line 279 "d:\work\project\bintuo-f73\software\bs66f360c\Source\Interrupt.c"
 279  0017  1780     E  	sdz _gu8v_UartDelayClearRxIndex[0]
 279  0018  2800     R  	jmp _L100
 282  0019              #line 282 "d:\work\project\bintuo-f73\software\bs66f360c\Source\Interrupt.c"
 282  0019  1F00     E  	clr _gu8v_UartRxLength[0]
 282  001A              _L100:
 285  001A              #line 285 "d:\work\project\bintuo-f73\software\bs66f360c\Source\Interrupt.c"
 285  001A  1480     E  	inc _gu8v_Delay500mS[0]
 286  001B              #line 286 "d:\work\project\bintuo-f73\software\bs66f360c\Source\Interrupt.c"
 286  001B  0F04        	mov a,4
 286  001C  0200     E  	sub a,_gu8v_Delay500mS[0]
 286  001D  3C0A        	sz c
 286  001E  2800     R  	jmp _L90
 288  001F              #line 288 "d:\work\project\bintuo-f73\software\bs66f360c\Source\Interrupt.c"
 288  001F  1F00     E  	clr _gu8v_Delay500mS[0]
 289  0020              #line 289 "d:\work\project\bintuo-f73\software\bs66f360c\Source\Interrupt.c"
 289  0020  3000     E  	set _TimeFlag1[0].4
 290  0021              #line 290 "d:\work\project\bintuo-f73\software\bs66f360c\Source\Interrupt.c"
 290  0021  3000     E  	set _WorkFlag3[0].0
 291  0022              #line 291 "d:\work\project\bintuo-f73\software\bs66f360c\Source\Interrupt.c"
 291  0022  1F00     E  	clr ra
 291  0023  3800     E  	snz _TimeFlag1[0].6
 291  0024  3000     E  	set ra.6
 291  0025  3400     E  	clr _TimeFlag1[0].6
 291  0026  0700     E  	mov a,ra
 291  0027  0580     E  	orm a,_TimeFlag1[0]
 292  0028              #line 292 "d:\work\project\bintuo-f73\software\bs66f360c\Source\Interrupt.c"
文件：Interrupt.c  编译器版本 HGASM 0202 页次14

 292  0028  1480     E  	inc _gu8v_Delay1S[0]
 293  0029              #line 293 "d:\work\project\bintuo-f73\software\bs66f360c\Source\Interrupt.c"
 293  0029  0F01        	mov a,1
 293  002A  0200     E  	sub a,_gu8v_Delay1S[0]
 293  002B  3C0A        	sz c
 293  002C  2800     R  	jmp _L90
 295  002D              #line 295 "d:\work\project\bintuo-f73\software\bs66f360c\Source\Interrupt.c"
 295  002D  1F00     E  	clr _gu8v_Delay1S[0]
 296  002E              #line 296 "d:\work\project\bintuo-f73\software\bs66f360c\Source\Interrupt.c"
 296  002E  3000     E  	set _TimeFlag1[0].5
 297  002F              #line 297 "d:\work\project\bintuo-f73\software\bs66f360c\Source\Interrupt.c"
 297  002F  3000     E  	set _TimeFlag1[0].7
 298  0030              #line 298 "d:\work\project\bintuo-f73\software\bs66f360c\Source\Interrupt.c"
 298  0030  3000     E  	set _TimeFlag2[0].0
 299  0031              #line 299 "d:\work\project\bintuo-f73\software\bs66f360c\Source\Interrupt.c"
 299  0031  3000     E  	set _TimeFlag2[0].1
 302  0032              #line 302 "d:\work\project\bintuo-f73\software\bs66f360c\Source\Interrupt.c"
 302  0032  1E00     E  	snz _gu8v_LockDelay60S[0]
 302  0033  2800     R  	jmp _L90
 304  0034              #line 304 "d:\work\project\bintuo-f73\software\bs66f360c\Source\Interrupt.c"
 304  0034  1780     E  	sdz _gu8v_LockDelay60S[0]
 304  0035  2800     R  	jmp _L90
 307  0036              #line 307 "d:\work\project\bintuo-f73\software\bs66f360c\Source\Interrupt.c"
 307  0036  3000     E  	set _WorkFlag5[0].3
 307  0037              _L90:
 307  0037  0003        	ret
 307  0038              _Time_Base endp
 307  0038              #line 307 "d:\work\project\bintuo-f73\software\bs66f360c\Source\Interrupt.c"
 307  0038              #pragma debug scope 1 1
 307  0038              #pragma debug struct_end
 307  0038              #pragma debug struct_end
 307  0038              #pragma debug union_end
 307  0038              #pragma debug union_end
 307  0038              #pragma debug variable 43 1 ___pa "__pa" 1
 307  0038              #pragma debug struct_end
 307  0038              #pragma debug struct_end
 307  0038              #pragma debug union_end
 307  0038              #pragma debug union_end
 307  0038              #pragma debug variable 45 1 ___pb "__pb" 1
 307  0038              #pragma debug struct_end
 307  0038              #pragma debug struct_end
 307  0038              #pragma debug union_end
 307  0038              #pragma debug union_end
 307  0038              #pragma debug variable 47 1 ___mfi2 "__mfi2" 1
 307  0038              #pragma debug struct_end
 307  0038              #pragma debug struct_end
 307  0038              #pragma debug union_end
 307  0038              #pragma debug union_end
 307  0038              #pragma debug variable 49 1 ___pe "__pe" 1
 307  0038              
 307  0038              ; output external variables
 307  0038              extern _WorkFlag5:byte
 307  0038              extern _gu8v_LockDelay60S:byte
 307  0038              extern _TimeFlag2:byte
 307  0038              extern _gu8v_Delay1S:byte
 307  0038              extern _gu8v_Delay500mS:byte
 307  0038              extern _gu8v_UartRxLength:byte
 307  0038              extern _gu8v_UartDelayClearRxIndex:byte
 307  0038              extern _gu8v_PreKeyDownDisTime:byte
 307  0038              extern _gu8v_IrDelay:byte
文件：Interrupt.c  编译器版本 HGASM 0202 页次15

 307  0038              extern _gu8v_KeyLongDelay:byte
 307  0038              extern _gu8v_RfIdCopyKeyCnt:byte
 307  0038              extern _gu8v_RfIdCopyTime:byte
 307  0038              extern _gu8v_PowerOnDelay:byte
 307  0038              extern _gu8v_AbFangQiTime:byte
 307  0038              extern _gu8v_Delay100mS:byte
 307  0038              extern _gu8v_Delay50mS:byte
 307  0038              extern _gu8v_BeepTime:byte
 307  0038              extern _gu8v_Delay10mS:byte
 307  0038              extern _TimeFlag1:byte
 307  0038              extern _gu8v_Delay5mS:byte
 307  0038              extern _gu8v_433RecValue:byte
 307  0038              extern _gu8v_433RecData:byte
 307  0038              extern _gu8v_433_H_cnt:byte
 307  0038              extern _gu8v_433ByteCnt:byte
 307  0038              extern _gu8v_433BitCnt:byte
 307  0038              extern _gu8v_433_L_Cnt:byte
 307  0038              extern _gu8v_IrSampStep:byte
 307  0038              extern _WorkFlag3:byte
 307  0038              extern _gu8v_RfBitDuty:byte
 307  0038              extern _gu8v_VoicePluse:byte
 307  0038              extern _gu8v_RfSendBitCnt:byte
 307  0038              extern _gu8v_RfSendByteCnt:byte
 307  0038              extern _gu8v_RfBitCycle:byte
 307  0038              extern _gu8v_RfSendStep:byte
 307  0038              extern _WorkModeFlag:byte
 307  0038              extern _WorkFlag2:byte
 307  0038              extern _DcfFlag1:byte
 307  0038              extern _gu8v_WorkMode:byte
 307  0038              extern _gu8v_FunPwmOutPinDelay:byte
 307  0038              extern _gu8v_FunPwmDelay:byte
 307  0038              extern _gu8v_FunPwmOutPinDuty:byte
 307  0038              extern _gu8v_FunPwmDuty:byte
 307  0038              extern _gu8v_AbPwmOutPinDelay:byte
 307  0038              extern _gu8v_AbPwmDelay:byte
 307  0038              extern _gu8v_AbPwmOutPinDuty:byte
 307  0038              extern _gu8v_AbPwmDuty:byte
 307  0038              extern _gu8v_AcOffDebounce:byte
 307  0038              extern _WorkFlag1:byte
 307  0038              extern _tx_data:byte
 307  0038              extern _tx_bit_index:byte
 307  0038              extern _tx_state:byte
 307  0038              extern _tx_busy:byte
 307  0038              extern r1:byte
 307  0038              extern r2:byte
 307  0038              extern r3:byte
 307  0038              extern r4:byte
 307  0038              extern r5:byte
 307  0038              extern r6:byte
 307  0038              extern r7:byte
 307  0038              
 307  0038              ; 
 307  0038              ; Generated by holtek-gcc v3.19, Mon Jan 12 15:28:07 2026
 307  0038              ; Rebuild 718
 307  0038              ; end of file


        0 Errors, 0