文件：Key.c        编译器版本 HGASM 0202 页次1


   1  0000              ; Generated by holtek-gcc v3.19, Thu Jul 10 20:20:33 2025
   2  0000              ; 
   3  0000              ; Configuration:
   4  0000              ;       with long instruction
   5  0000              ;       Multi-ROM, Multi-RAM
   6  0000              ;       bits_per_rom_unit:16
   7  0000              ;       with mp1
   8  0000              ;       with tbhp, address(0x9)
   9  0000              ;          Use tabrd-const
  10  0000              ;       
  11  0000              ; SFR address of long-instruction arch:
  12  0000              ;    mp0 = -1,1,0
  13  0000              ;    mp1 = 4,3,2
  14  0000              ;    mp2 = 14,13,12
  15  0000              ;    tbp = 9,7,8
  16  0000              ;    acc = 5
  17  0000              ;    pcl = 6
  18  0000              ;    status = 10
  19  0000              ;    bp = 11
  20  0000              ;    intc = 16
  21  0000              ;       
  22  0000              ;       
  23  0000              ; use 'tabrdc' instead of 'tabrd'
  24  0000              ;       
  25  0000              
  26  0000              #pragma translator "holtek-gcc 4.6.4" "3.19" "build 20130711"
  27  0000              ; Rebuild 718
  28  0000              
  29  0000              ir equ [2]
  30  0000              mp equ [3]
  31  0000              sbp equ [4]
  32  0000              acc equ [5]
  33  0000              bp equ [11]
  34  0000              tblp equ [7]
  35  0000              tbhp equ [9]
  36  0000              status equ [10]
  37  0000              c equ [10].0
  38  0000              ac equ [10].1
  39  0000              z equ [10].2
  40  0000              ov equ [10].3
  41  0000              cz equ [10].6
  42  0000              sc equ [10].7
  43  0000              intc equ [16]
  44  0000              
  45  0000              extern ra:byte
  46  0000              extern rb:byte
  47  0000              extern rc:byte
  48  0000              extern rd:byte
  49  0000              extern re:byte
  50  0000              extern rf:byte
  51  0000              extern rg:byte
  52  0000              extern rh:byte
  53  0000              extern _Crom2Prom:near
  54  0000              extern _Crom2PromNext:near
  55  0000              
  56  0000              RAMBANK 0 @BITDATASEC, @BITDATASEC1
  57  0000              @HCCINIT	.section 'data'
  58  0000              @HCCINIT0	.section 'data'
  59  0000              @BITDATASEC	 .section 'data'
文件：Key.ASM      编译器版本 HGASM 0202 页次2

  60  0000              @BITDATASEC1	 .section 'data'
  61  0000              
  62  0000              #pragma debug scope 1 1
  63  0000              	extern __DELAY3:near
  64  0000              	extern __DELAYX3:near
  65  0000              	extern __DELAYX6:near
  66  0000              	extern __DELAYY5:near
  67  0000              	extern __DELAYY3:near
  68  0000              	extern _builtin_holtek_delay_2:byte
  69  0000              ___pa equ [20]
  70  0000              public _FactoryMode_Task
  71  0000              #pragma debug scope 2 1

   6  0000              #line 6 "D:\HF\MDST\Code\BS66F360C_CTOUCH_V512_HF-SC10B-20250630\BS66F360C_CTOUCH_V512_HF-SC10B\BS66F360C\Source\Key.c"
   6  0000              _FactoryMode_Task .section 'code'
   6  0000              _FactoryMode_Task proc
   7  0000              #line 7 "D:\HF\MDST\Code\BS66F360C_CTOUCH_V512_HF-SC10B-20250630\BS66F360C_CTOUCH_V512_HF-SC10B\BS66F360C\Source\Key.c"
   7  0000  3C14        	sz [20].0
   7  0001  2800     R  	jmp _L2
   9  0002              #line 9 "D:\HF\MDST\Code\BS66F360C_CTOUCH_V512_HF-SC10B-20250630\BS66F360C_CTOUCH_V512_HF-SC10B\BS66F360C\Source\Key.c"
   9  0002  1480     E  	inc _gu8v_FactoryDebounce[0]
  10  0003              #line 10 "D:\HF\MDST\Code\BS66F360C_CTOUCH_V512_HF-SC10B-20250630\BS66F360C_CTOUCH_V512_HF-SC10B\BS66F360C\Source\Key.c"
  10  0003  0F31        	mov a,49
  10  0004  0200     E  	sub a,_gu8v_FactoryDebounce[0]
  10  0005  3C0A        	sz c
  10  0006  2800     R  	jmp _L1
  12  0007              #line 12 "D:\HF\MDST\Code\BS66F360C_CTOUCH_V512_HF-SC10B-20250630\BS66F360C_CTOUCH_V512_HF-SC10B\BS66F360C\Source\Key.c"
  12  0007  1F00     E  	clr _gu8v_FactoryDebounce[0]
  13  0008              #line 13 "D:\HF\MDST\Code\BS66F360C_CTOUCH_V512_HF-SC10B-20250630\BS66F360C_CTOUCH_V512_HF-SC10B\BS66F360C\Source\Key.c"
  13  0008  3000     E  	set _WorkFlag5[0].1
  14  0009              #line 14 "D:\HF\MDST\Code\BS66F360C_CTOUCH_V512_HF-SC10B-20250630\BS66F360C_CTOUCH_V512_HF-SC10B\BS66F360C\Source\Key.c"
  14  0009  0F03        	mov a,3
  14  000A  0080     E  	mov _gu8v_WorkMode[0],a
  15  000B              #line 15 "D:\HF\MDST\Code\BS66F360C_CTOUCH_V512_HF-SC10B-20250630\BS66F360C_CTOUCH_V512_HF-SC10B\BS66F360C\Source\Key.c"
  15  000B  1F00     E  	clr _gu8v_PowerOnDelay[0]
  16  000C              #line 16 "D:\HF\MDST\Code\BS66F360C_CTOUCH_V512_HF-SC10B-20250630\BS66F360C_CTOUCH_V512_HF-SC10B\BS66F360C\Source\Key.c"
  16  000C              	fcall _Init_TimerReg
  16  0013  2800     R  	jmp _L1
  16  0014              _L2:
  21  0014              #line 21 "D:\HF\MDST\Code\BS66F360C_CTOUCH_V512_HF-SC10B-20250630\BS66F360C_CTOUCH_V512_HF-SC10B\BS66F360C\Source\Key.c"
  21  0014  1F00     E  	clr _gu8v_FactoryDebounce[0]
  21  0015              _L1:
  21  0015  0003        	ret
  21  0016              _FactoryMode_Task endp
  21  0016              #line 21 "D:\HF\MDST\Code\BS66F360C_CTOUCH_V512_HF-SC10B-20250630\BS66F360C_CTOUCH_V512_HF-SC10B\BS66F360C\Source\Key.c"
  21  0016              #pragma debug scope 1 1
  21  0016              ___pf equ [115]
  21  0016              public _Key_Task
  21  0016              #pragma debug scope 3 1
  29  0016              #line 29 "D:\HF\MDST\Code\BS66F360C_CTOUCH_V512_HF-SC10B-20250630\BS66F360C_CTOUCH_V512_HF-SC10B\BS66F360C\Source\Key.c"
  29  0000              _Key_Task .section 'code'
  29  0000              _Key_Task proc
  30  0000              #line 30 "D:\HF\MDST\Code\BS66F360C_CTOUCH_V512_HF-SC10B-20250630\BS66F360C_CTOUCH_V512_HF-SC10B\BS66F360C\Source\Key.c"
  30  0000  3EF3        	sz [115].5
  30  0001  2800     R  	jmp _L6
  30  0002              #line 30 "D:\HF\MDST\Code\BS66F360C_CTOUCH_V512_HF-SC10B-20250630\BS66F360C_CTOUCH_V512_HF-SC10B\BS66F360C\Source\Key.c"
  30  0002  0F80        	mov a,128
  30  0003  0080     E  	mov _gu8v_KeyBuf3[0],a
  30  0004              _L6:
  31  0004              #line 31 "D:\HF\MDST\Code\BS66F360C_CTOUCH_V512_HF-SC10B-20250630\BS66F360C_CTOUCH_V512_HF-SC10B\BS66F360C\Source\Key.c"
文件：Key.c        编译器版本 HGASM 0202 页次3

  31  0004  1080     E  	sz _gu8v_KeyBuf1[0]
  31  0005  2800     R  	jmp _L7
  31  0006  1080     E  	sz _gu8v_KeyBuf2[0]
  31  0007  2800     R  	jmp _L7
  31  0008  1E00     E  	snz _gu8v_KeyBuf3[0]
  31  0009  2800     R  	jmp _L8
  31  000A              _L7:
  33  000A              #line 33 "D:\HF\MDST\Code\BS66F360C_CTOUCH_V512_HF-SC10B-20250630\BS66F360C_CTOUCH_V512_HF-SC10B\BS66F360C\Source\Key.c"
  33  000A  1F00     E  	clr ra
  33  000B  3914        	snz [20].2
  33  000C  3000     E  	set ra.2
  33  000D  3514        	clr [20].2
  33  000E  0700     E  	mov a,ra
  33  000F  0594        	orm a,[20]
  34  0010              #line 34 "D:\HF\MDST\Code\BS66F360C_CTOUCH_V512_HF-SC10B-20250630\BS66F360C_CTOUCH_V512_HF-SC10B\BS66F360C\Source\Key.c"
  34  0010  1F00     E  	clr _gu8v_KeyOffDebounce[0]
  35  0011              #line 35 "D:\HF\MDST\Code\BS66F360C_CTOUCH_V512_HF-SC10B-20250630\BS66F360C_CTOUCH_V512_HF-SC10B\BS66F360C\Source\Key.c"
  35  0011  1480     E  	inc _gu8v_KeyDebounce[0]
  36  0012              #line 36 "D:\HF\MDST\Code\BS66F360C_CTOUCH_V512_HF-SC10B-20250630\BS66F360C_CTOUCH_V512_HF-SC10B\BS66F360C\Source\Key.c"
  36  0012  0F04        	mov a,4
  36  0013  0200     E  	sub a,_gu8v_KeyDebounce[0]
  36  0014  3C0A        	sz c
  36  0015  2800     R  	jmp _L5
  38  0016              #line 38 "D:\HF\MDST\Code\BS66F360C_CTOUCH_V512_HF-SC10B-20250630\BS66F360C_CTOUCH_V512_HF-SC10B\BS66F360C\Source\Key.c"
  38  0016  1F00     E  	clr _gu8v_KeyDebounce[0]
  39  0017              #line 39 "D:\HF\MDST\Code\BS66F360C_CTOUCH_V512_HF-SC10B-20250630\BS66F360C_CTOUCH_V512_HF-SC10B\BS66F360C\Source\Key.c"
  39  0017  3C00     E  	sz _WorkFlag1[0].4
  39  0018  2800     R  	jmp _L11
  41  0019              #line 41 "D:\HF\MDST\Code\BS66F360C_CTOUCH_V512_HF-SC10B-20250630\BS66F360C_CTOUCH_V512_HF-SC10B\BS66F360C\Source\Key.c"
  41  0019  3000     E  	set _WorkFlag1[0].4
  42  001A              #line 42 "D:\HF\MDST\Code\BS66F360C_CTOUCH_V512_HF-SC10B-20250630\BS66F360C_CTOUCH_V512_HF-SC10B\BS66F360C\Source\Key.c"
  42  001A  0F0F        	mov a,15
  42  001B  0080     E  	mov _gu8v_KeyLongDelay[0],a
  43  001C              #line 43 "D:\HF\MDST\Code\BS66F360C_CTOUCH_V512_HF-SC10B-20250630\BS66F360C_CTOUCH_V512_HF-SC10B\BS66F360C\Source\Key.c"
  43  001C  3400     E  	clr _WorkFlag1[0].5
  45  001D              #line 45 "D:\HF\MDST\Code\BS66F360C_CTOUCH_V512_HF-SC10B-20250630\BS66F360C_CTOUCH_V512_HF-SC10B\BS66F360C\Source\Key.c"
  45  001D  3800     E  	snz _gu8v_KeyBuf1[0].0
  45  001E  2800     R  	jmp _L12
  47  001F              #line 47 "D:\HF\MDST\Code\BS66F360C_CTOUCH_V512_HF-SC10B-20250630\BS66F360C_CTOUCH_V512_HF-SC10B\BS66F360C\Source\Key.c"
  47  001F  3000     E  	set _KeyFlag2[0].2
  47  0020  2800     R  	jmp _L5
  47  0021              _L12:
  49  0021              #line 49 "D:\HF\MDST\Code\BS66F360C_CTOUCH_V512_HF-SC10B-20250630\BS66F360C_CTOUCH_V512_HF-SC10B\BS66F360C\Source\Key.c"
  49  0021  3800     E  	snz _gu8v_KeyBuf1[0].1
  49  0022  2800     R  	jmp _L13
  51  0023              #line 51 "D:\HF\MDST\Code\BS66F360C_CTOUCH_V512_HF-SC10B-20250630\BS66F360C_CTOUCH_V512_HF-SC10B\BS66F360C\Source\Key.c"
  51  0023  3000     E  	set _KeyFlag2[0].1
  51  0024  2800     R  	jmp _L5
  51  0025              _L13:
  53  0025              #line 53 "D:\HF\MDST\Code\BS66F360C_CTOUCH_V512_HF-SC10B-20250630\BS66F360C_CTOUCH_V512_HF-SC10B\BS66F360C\Source\Key.c"
  53  0025  3800     E  	snz _gu8v_KeyBuf1[0].2
  53  0026  2800     R  	jmp _L14
  55  0027              #line 55 "D:\HF\MDST\Code\BS66F360C_CTOUCH_V512_HF-SC10B-20250630\BS66F360C_CTOUCH_V512_HF-SC10B\BS66F360C\Source\Key.c"
  55  0027  3000     E  	set _KeyFlag2[0].0
  55  0028  2800     R  	jmp _L5
  55  0029              _L14:
  57  0029              #line 57 "D:\HF\MDST\Code\BS66F360C_CTOUCH_V512_HF-SC10B-20250630\BS66F360C_CTOUCH_V512_HF-SC10B\BS66F360C\Source\Key.c"
  57  0029  3800     E  	snz _gu8v_KeyBuf1[0].3
  57  002A  2800     R  	jmp _L15
  59  002B              #line 59 "D:\HF\MDST\Code\BS66F360C_CTOUCH_V512_HF-SC10B-20250630\BS66F360C_CTOUCH_V512_HF-SC10B\BS66F360C\Source\Key.c"
文件：Key.c        编译器版本 HGASM 0202 页次4

  59  002B  3000     E  	set _KeyFlag1[0].6
  59  002C  2800     R  	jmp _L5
  59  002D              _L15:
  61  002D              #line 61 "D:\HF\MDST\Code\BS66F360C_CTOUCH_V512_HF-SC10B-20250630\BS66F360C_CTOUCH_V512_HF-SC10B\BS66F360C\Source\Key.c"
  61  002D  3800     E  	snz _gu8v_KeyBuf1[0].6
  61  002E  2800     R  	jmp _L16
  63  002F              #line 63 "D:\HF\MDST\Code\BS66F360C_CTOUCH_V512_HF-SC10B-20250630\BS66F360C_CTOUCH_V512_HF-SC10B\BS66F360C\Source\Key.c"
  63  002F  3000     E  	set _KeyFlag1[0].5
  63  0030  2800     R  	jmp _L5
  63  0031              _L16:
  65  0031              #line 65 "D:\HF\MDST\Code\BS66F360C_CTOUCH_V512_HF-SC10B-20250630\BS66F360C_CTOUCH_V512_HF-SC10B\BS66F360C\Source\Key.c"
  65  0031  3800     E  	snz _gu8v_KeyBuf1[0].7
  65  0032  2800     R  	jmp _L17
  67  0033              #line 67 "D:\HF\MDST\Code\BS66F360C_CTOUCH_V512_HF-SC10B-20250630\BS66F360C_CTOUCH_V512_HF-SC10B\BS66F360C\Source\Key.c"
  67  0033  3000     E  	set _KeyFlag1[0].4
  67  0034  2800     R  	jmp _L5
  67  0035              _L17:
  69  0035              #line 69 "D:\HF\MDST\Code\BS66F360C_CTOUCH_V512_HF-SC10B-20250630\BS66F360C_CTOUCH_V512_HF-SC10B\BS66F360C\Source\Key.c"
  69  0035  3800     E  	snz _gu8v_KeyBuf2[0].3
  69  0036  2800     R  	jmp _L18
  71  0037              #line 71 "D:\HF\MDST\Code\BS66F360C_CTOUCH_V512_HF-SC10B-20250630\BS66F360C_CTOUCH_V512_HF-SC10B\BS66F360C\Source\Key.c"
  71  0037  3000     E  	set _KeyFlag1[0].3
  71  0038  2800     R  	jmp _L5
  71  0039              _L18:
  73  0039              #line 73 "D:\HF\MDST\Code\BS66F360C_CTOUCH_V512_HF-SC10B-20250630\BS66F360C_CTOUCH_V512_HF-SC10B\BS66F360C\Source\Key.c"
  73  0039  3800     E  	snz _gu8v_KeyBuf2[0].0
  73  003A  2800     R  	jmp _L19
  75  003B              #line 75 "D:\HF\MDST\Code\BS66F360C_CTOUCH_V512_HF-SC10B-20250630\BS66F360C_CTOUCH_V512_HF-SC10B\BS66F360C\Source\Key.c"
  75  003B  3000     E  	set _KeyFlag1[0].0
  75  003C  2800     R  	jmp _L5
  75  003D              _L19:
  77  003D              #line 77 "D:\HF\MDST\Code\BS66F360C_CTOUCH_V512_HF-SC10B-20250630\BS66F360C_CTOUCH_V512_HF-SC10B\BS66F360C\Source\Key.c"
  77  003D  3800     E  	snz _gu8v_KeyBuf2[0].1
  77  003E  2800     R  	jmp _L20
  79  003F              #line 79 "D:\HF\MDST\Code\BS66F360C_CTOUCH_V512_HF-SC10B-20250630\BS66F360C_CTOUCH_V512_HF-SC10B\BS66F360C\Source\Key.c"
  79  003F  3000     E  	set _KeyFlag1[0].1
  79  0040  2800     R  	jmp _L5
  79  0041              _L20:
  81  0041              #line 81 "D:\HF\MDST\Code\BS66F360C_CTOUCH_V512_HF-SC10B-20250630\BS66F360C_CTOUCH_V512_HF-SC10B\BS66F360C\Source\Key.c"
  81  0041  3800     E  	snz _gu8v_KeyBuf2[0].6
  81  0042  2800     R  	jmp _L21
  83  0043              #line 83 "D:\HF\MDST\Code\BS66F360C_CTOUCH_V512_HF-SC10B-20250630\BS66F360C_CTOUCH_V512_HF-SC10B\BS66F360C\Source\Key.c"
  83  0043  3000     E  	set _KeyFlag1[0].2
  83  0044  2800     R  	jmp _L5
  83  0045              _L21:
  85  0045              #line 85 "D:\HF\MDST\Code\BS66F360C_CTOUCH_V512_HF-SC10B-20250630\BS66F360C_CTOUCH_V512_HF-SC10B\BS66F360C\Source\Key.c"
  85  0045  3800     E  	snz _gu8v_KeyBuf3[0].0
  85  0046  2800     R  	jmp _L22
  87  0047              #line 87 "D:\HF\MDST\Code\BS66F360C_CTOUCH_V512_HF-SC10B-20250630\BS66F360C_CTOUCH_V512_HF-SC10B\BS66F360C\Source\Key.c"
  87  0047  3000     E  	set _KeyFlag2[0].3
  87  0048  2800     R  	jmp _L5
  87  0049              _L22:
  89  0049              #line 89 "D:\HF\MDST\Code\BS66F360C_CTOUCH_V512_HF-SC10B-20250630\BS66F360C_CTOUCH_V512_HF-SC10B\BS66F360C\Source\Key.c"
  89  0049  3800     E  	snz _gu8v_KeyBuf3[0].1
  89  004A  2800     R  	jmp _L23
  91  004B              #line 91 "D:\HF\MDST\Code\BS66F360C_CTOUCH_V512_HF-SC10B-20250630\BS66F360C_CTOUCH_V512_HF-SC10B\BS66F360C\Source\Key.c"
  91  004B  3000     E  	set _KeyFlag2[0].4
  91  004C  2800     R  	jmp _L5
  91  004D              _L23:
  93  004D              #line 93 "D:\HF\MDST\Code\BS66F360C_CTOUCH_V512_HF-SC10B-20250630\BS66F360C_CTOUCH_V512_HF-SC10B\BS66F360C\Source\Key.c"
文件：Key.c        编译器版本 HGASM 0202 页次5

  93  004D  3800     E  	snz _gu8v_KeyBuf3[0].2
  93  004E  2800     R  	jmp _L24
  95  004F              #line 95 "D:\HF\MDST\Code\BS66F360C_CTOUCH_V512_HF-SC10B-20250630\BS66F360C_CTOUCH_V512_HF-SC10B\BS66F360C\Source\Key.c"
  95  004F  3000     E  	set _KeyFlag2[0].5
  95  0050  2800     R  	jmp _L5
  95  0051              _L24:
  99  0051              #line 99 "D:\HF\MDST\Code\BS66F360C_CTOUCH_V512_HF-SC10B-20250630\BS66F360C_CTOUCH_V512_HF-SC10B\BS66F360C\Source\Key.c"
  99  0051  3800     E  	snz _gu8v_KeyBuf2[0].5
  99  0052  2800     R  	jmp _L25
 101  0053              #line 101 "D:\HF\MDST\Code\BS66F360C_CTOUCH_V512_HF-SC10B-20250630\BS66F360C_CTOUCH_V512_HF-SC10B\BS66F360C\Source\Key.c"
 101  0053  3000     E  	set _KeyFlag3[0].2
 101  0054  2800     R  	jmp _L5
 101  0055              _L25:
 103  0055              #line 103 "D:\HF\MDST\Code\BS66F360C_CTOUCH_V512_HF-SC10B-20250630\BS66F360C_CTOUCH_V512_HF-SC10B\BS66F360C\Source\Key.c"
 103  0055  3800     E  	snz _gu8v_KeyBuf3[0].4
 103  0056  2800     R  	jmp _L26
 105  0057              #line 105 "D:\HF\MDST\Code\BS66F360C_CTOUCH_V512_HF-SC10B-20250630\BS66F360C_CTOUCH_V512_HF-SC10B\BS66F360C\Source\Key.c"
 105  0057  3800     E  	snz _WorkFlag4[0].3
 105  0058  2800     R  	jmp _L27
 107  0059              #line 107 "D:\HF\MDST\Code\BS66F360C_CTOUCH_V512_HF-SC10B-20250630\BS66F360C_CTOUCH_V512_HF-SC10B\BS66F360C\Source\Key.c"
 107  0059              	fcall _Fun_CalModeProcess
 107  0060              _L27:
 109  0060              #line 109 "D:\HF\MDST\Code\BS66F360C_CTOUCH_V512_HF-SC10B-20250630\BS66F360C_CTOUCH_V512_HF-SC10B\BS66F360C\Source\Key.c"
 109  0060  3000     E  	set _KeyFlag2[0].7
 109  0061  2800     R  	jmp _L5
 109  0062              _L26:
 111  0062              #line 111 "D:\HF\MDST\Code\BS66F360C_CTOUCH_V512_HF-SC10B-20250630\BS66F360C_CTOUCH_V512_HF-SC10B\BS66F360C\Source\Key.c"
 111  0062  3800     E  	snz _gu8v_KeyBuf3[0].5
 111  0063  2800     R  	jmp _L28
 113  0064              #line 113 "D:\HF\MDST\Code\BS66F360C_CTOUCH_V512_HF-SC10B-20250630\BS66F360C_CTOUCH_V512_HF-SC10B\BS66F360C\Source\Key.c"
 113  0064  3800     E  	snz _WorkFlag5[0].1
 113  0065  2800     R  	jmp _L29
 113  0066  3C00     E  	sz _WorkFlag4[0].3
 113  0067  2800     R  	jmp _L29
 115  0068              #line 115 "D:\HF\MDST\Code\BS66F360C_CTOUCH_V512_HF-SC10B-20250630\BS66F360C_CTOUCH_V512_HF-SC10B\BS66F360C\Source\Key.c"
 115  0068  3000     E  	set _WorkFlag4[0].3
 116  0069              #line 116 "D:\HF\MDST\Code\BS66F360C_CTOUCH_V512_HF-SC10B-20250630\BS66F360C_CTOUCH_V512_HF-SC10B\BS66F360C\Source\Key.c"
 116  0069  1F00     E  	clr _gu8v_CalModeIndex[0]
 117  006A              #line 117 "D:\HF\MDST\Code\BS66F360C_CTOUCH_V512_HF-SC10B-20250630\BS66F360C_CTOUCH_V512_HF-SC10B\BS66F360C\Source\Key.c"
 117  006A  3000     E  	set _WorkFlag4[0].1
 118  006B              #line 118 "D:\HF\MDST\Code\BS66F360C_CTOUCH_V512_HF-SC10B-20250630\BS66F360C_CTOUCH_V512_HF-SC10B\BS66F360C\Source\Key.c"
 118  006B  1F00     E  	clr _gu8v_AbGetAdcZeroCnt[0]
 118  006C              _L29:
 120  006C              #line 120 "D:\HF\MDST\Code\BS66F360C_CTOUCH_V512_HF-SC10B-20250630\BS66F360C_CTOUCH_V512_HF-SC10B\BS66F360C\Source\Key.c"
 120  006C  3000     E  	set _KeyFlag2[0].6
 120  006D  2800     R  	jmp _L5
 120  006E              _L28:
 122  006E              #line 122 "D:\HF\MDST\Code\BS66F360C_CTOUCH_V512_HF-SC10B-20250630\BS66F360C_CTOUCH_V512_HF-SC10B\BS66F360C\Source\Key.c"
 122  006E  3800     E  	snz _gu8v_KeyBuf3[0].7
 122  006F  2800     R  	jmp _L5
 124  0070              #line 124 "D:\HF\MDST\Code\BS66F360C_CTOUCH_V512_HF-SC10B-20250630\BS66F360C_CTOUCH_V512_HF-SC10B\BS66F360C\Source\Key.c"
 124  0070  3000     E  	set _KeyFlag3[0].1
 124  0071  2800     R  	jmp _L5
 124  0072              _L11:
 130  0072              #line 130 "D:\HF\MDST\Code\BS66F360C_CTOUCH_V512_HF-SC10B-20250630\BS66F360C_CTOUCH_V512_HF-SC10B\BS66F360C\Source\Key.c"
 130  0072  1080     E  	sz _gu8v_KeyLongDelay[0]
 130  0073  2800     R  	jmp _L5
 130  0074  3C00     E  	sz _WorkFlag1[0].5
 130  0075  2800     R  	jmp _L5
 132  0076              #line 132 "D:\HF\MDST\Code\BS66F360C_CTOUCH_V512_HF-SC10B-20250630\BS66F360C_CTOUCH_V512_HF-SC10B\BS66F360C\Source\Key.c"
文件：Key.c        编译器版本 HGASM 0202 页次6

 132  0076  0F0F        	mov a,15
 132  0077  0080     E  	mov _gu8v_KeyLongDelay[0],a
 133  0078              #line 133 "D:\HF\MDST\Code\BS66F360C_CTOUCH_V512_HF-SC10B-20250630\BS66F360C_CTOUCH_V512_HF-SC10B\BS66F360C\Source\Key.c"
 133  0078  3000     E  	set _WorkFlag1[0].5
 134  0079              #line 134 "D:\HF\MDST\Code\BS66F360C_CTOUCH_V512_HF-SC10B-20250630\BS66F360C_CTOUCH_V512_HF-SC10B\BS66F360C\Source\Key.c"
 134  0079  3800     E  	snz _gu8v_KeyBuf3[0].3
 134  007A  2800     R  	jmp _L5
 136  007B              #line 136 "D:\HF\MDST\Code\BS66F360C_CTOUCH_V512_HF-SC10B-20250630\BS66F360C_CTOUCH_V512_HF-SC10B\BS66F360C\Source\Key.c"
 136  007B  3000     E  	set _KeyFlag3[0].0
 136  007C  2800     R  	jmp _L5
 136  007D              _L8:
 144  007D              #line 144 "D:\HF\MDST\Code\BS66F360C_CTOUCH_V512_HF-SC10B-20250630\BS66F360C_CTOUCH_V512_HF-SC10B\BS66F360C\Source\Key.c"
 144  007D  1F00     E  	clr _gu8v_KeyDebounce[0]
 145  007E              #line 145 "D:\HF\MDST\Code\BS66F360C_CTOUCH_V512_HF-SC10B-20250630\BS66F360C_CTOUCH_V512_HF-SC10B\BS66F360C\Source\Key.c"
 145  007E  1480     E  	inc _gu8v_KeyOffDebounce[0]
 146  007F              #line 146 "D:\HF\MDST\Code\BS66F360C_CTOUCH_V512_HF-SC10B-20250630\BS66F360C_CTOUCH_V512_HF-SC10B\BS66F360C\Source\Key.c"
 146  007F  0F04        	mov a,4
 146  0080  0200     E  	sub a,_gu8v_KeyOffDebounce[0]
 146  0081  3C0A        	sz c
 146  0082  2800     R  	jmp _L5
 148  0083              #line 148 "D:\HF\MDST\Code\BS66F360C_CTOUCH_V512_HF-SC10B-20250630\BS66F360C_CTOUCH_V512_HF-SC10B\BS66F360C\Source\Key.c"
 148  0083  1F00     E  	clr _gu8v_KeyOffDebounce[0]
 149  0084              #line 149 "D:\HF\MDST\Code\BS66F360C_CTOUCH_V512_HF-SC10B-20250630\BS66F360C_CTOUCH_V512_HF-SC10B\BS66F360C\Source\Key.c"
 149  0084  3400     E  	clr _WorkFlag1[0].4
 150  0085              #line 150 "D:\HF\MDST\Code\BS66F360C_CTOUCH_V512_HF-SC10B-20250630\BS66F360C_CTOUCH_V512_HF-SC10B\BS66F360C\Source\Key.c"
 150  0085  1F00     E  	clr _gu8v_KeyDebounce[0]
 151  0086              #line 151 "D:\HF\MDST\Code\BS66F360C_CTOUCH_V512_HF-SC10B-20250630\BS66F360C_CTOUCH_V512_HF-SC10B\BS66F360C\Source\Key.c"
 151  0086  3400     E  	clr _WorkFlag1[0].5
 151  0087              _L5:
 151  0087  0003        	ret
 151  0088              _Key_Task endp
 151  0088              #line 151 "D:\HF\MDST\Code\BS66F360C_CTOUCH_V512_HF-SC10B-20250630\BS66F360C_CTOUCH_V512_HF-SC10B\BS66F360C\Source\Key.c"
 151  0088              #pragma debug scope 1 1
 151  0088              #pragma debug struct_end
 151  0088              #pragma debug struct_end
 151  0088              #pragma debug union_end
 151  0088              #pragma debug union_end
 151  0088              #pragma debug variable 43 1 ___pa "__pa" 1
 151  0088              #pragma debug struct_end
 151  0088              #pragma debug struct_end
 151  0088              #pragma debug union_end
 151  0088              #pragma debug union_end
 151  0088              #pragma debug variable 45 1 ___pf "__pf" 1
 151  0088              
 151  0088              ; output external variables
 151  0088              extern _gu8v_AbGetAdcZeroCnt:byte
 151  0088              extern _gu8v_CalModeIndex:byte
 151  0088              extern _WorkFlag4:byte
 151  0088              extern _KeyFlag3:byte
 151  0088              extern _KeyFlag1:byte
 151  0088              extern _KeyFlag2:byte
 151  0088              extern _gu8v_KeyLongDelay:byte
 151  0088              extern _WorkFlag1:byte
 151  0088              extern _gu8v_KeyDebounce:byte
 151  0088              extern _gu8v_KeyOffDebounce:byte
 151  0088              extern _gu8v_KeyBuf2:byte
 151  0088              extern _gu8v_KeyBuf1:byte
 151  0088              extern _gu8v_KeyBuf3:byte
 151  0088              extern _gu8v_PowerOnDelay:byte
 151  0088              extern _gu8v_WorkMode:byte
文件：Key.c        编译器版本 HGASM 0202 页次7

 151  0088              extern _WorkFlag5:byte
 151  0088              extern _gu8v_FactoryDebounce:byte
 151  0088              extern _Init_TimerReg:near
 151  0088              extern _Fun_CalModeProcess:near
 151  0088              
 151  0088              ; 
 151  0088              ; Generated by holtek-gcc v3.19, Thu Jul 10 20:20:33 2025
 151  0088              ; Rebuild 718
 151  0088              ; end of file


        0 Errors, 0